Component: ARM Compiler 5.06 update 7 (build 960) Tool: armlink [4d3601]

==============================================================================

Section Cross References

    main.o(i.Hardware_Init) refers to misc.o(i.NVIC_PriorityGroupConfig) for NVIC_PriorityGroupConfig
    main.o(i.Hardware_Init) refers to oled.o(i.GB16_NUM) for GB16_NUM
    main.o(i.Hardware_Init) refers to delay.o(i.delay_init) for delay_init
    main.o(i.Hardware_Init) refers to timer.o(i.GENERAL_TIM_Init) for GENERAL_TIM_Init
    main.o(i.Hardware_Init) refers to usart.o(i.Usart1_Init) for Usart1_Init
    main.o(i.Hardware_Init) refers to usart2.o(i.Usart2_Init) for Usart2_Init
    main.o(i.Hardware_Init) refers to usart3.o(i.Usart3_Init) for Usart3_Init
    main.o(i.Hardware_Init) refers to led.o(i.System_PB34_setIO) for System_PB34_setIO
    main.o(i.Hardware_Init) refers to led.o(i.LED_Init) for LED_Init
    main.o(i.Hardware_Init) refers to key.o(i.Key_GPIO_Config) for Key_GPIO_Config
    main.o(i.Hardware_Init) refers to jr6001.o(i.JR6001_Init) for JR6001_Init
    main.o(i.Hardware_Init) refers to hmc5883l.o(i.GY_IIC_Init) for GY_IIC_Init
    main.o(i.Hardware_Init) refers to hmc5883l.o(i.HMC5883_Init) for HMC5883_Init
    main.o(i.Hardware_Init) refers to delay.o(i.delay_ms) for delay_ms
    main.o(i.Hardware_Init) refers to git.o(i.Reset_Threshole_Value) for Reset_Threshole_Value
    main.o(i.Hardware_Init) refers to oled.o(i.OLED_Init) for OLED_Init
    main.o(i.Hardware_Init) refers to oled.o(i.OLED_ColorTurn) for OLED_ColorTurn
    main.o(i.Hardware_Init) refers to oled.o(i.OLED_DisplayTurn) for OLED_DisplayTurn
    main.o(i.Hardware_Init) refers to oled.o(i.OLED_Clear) for OLED_Clear
    main.o(i.Hardware_Init) refers to oled.o(.data) for HZ
    main.o(i.Hardware_Init) refers to git.o(.bss) for device_state_init
    main.o(i.Hardware_Init) refers to git.o(.data) for threshold_value_init
    main.o(i.Net_Init) refers to oled.o(i.OLED_Clear) for OLED_Clear
    main.o(i.Net_Init) refers to printfa.o(i.__0sprintf) for __2sprintf
    main.o(i.Net_Init) refers to oled.o(i.OLED_ShowCH) for OLED_ShowCH
    main.o(i.Net_Init) refers to ga10.o(i.GA10_Init) for GA10_Init
    main.o(i.Net_Init) refers to main.o(.data) for Connect_Net
    main.o(i.SoftWare_Init) refers to task.o(i.timer_init) for timer_init
    main.o(i.SoftWare_Init) refers to task.o(i.timer_start) for timer_start
    main.o(i.SoftWare_Init) refers to main.o(i.task1) for task1
    main.o(i.SoftWare_Init) refers to main.o(.bss) for task1_id
    main.o(i.SoftWare_Init) refers to main.o(i.task2) for task2
    main.o(i.SoftWare_Init) refers to main.o(i.task3) for task3
    main.o(i.main) refers to main.o(i.SoftWare_Init) for SoftWare_Init
    main.o(i.main) refers to main.o(i.Hardware_Init) for Hardware_Init
    main.o(i.main) refers to main.o(i.Net_Init) for Net_Init
    main.o(i.main) refers to stm32f10x_tim.o(i.TIM_Cmd) for TIM_Cmd
    main.o(i.main) refers to task.o(i.timer_loop) for timer_loop
    main.o(i.main) refers to usart3.o(i.ESP8266_GetIPD) for ESP8266_GetIPD
    main.o(i.main) refers to ga10.o(i.massage_ga10_json) for massage_ga10_json
    main.o(i.main) refers to git.o(i.Check_Key_ON_OFF) for Check_Key_ON_OFF
    main.o(i.main) refers to timer.o(.data) for time25ms
    main.o(i.task1) refers to git.o(i.Automation_Close) for Automation_Close
    main.o(i.task1) refers to git.o(i.Update_oled_massage) for Update_oled_massage
    main.o(i.task2) refers to git.o(i.Read_Data) for Read_Data
    main.o(i.task2) refers to git.o(i.Update_device_massage) for Update_device_massage
    main.o(i.task2) refers to git.o(.bss) for Data_init
    main.o(i.task3) refers to git.o(.bss) for Data_init
    main.o(.data) refers to main.o(.conststring) for .conststring
    system_stm32f10x.o(i.SetSysClock) refers to system_stm32f10x.o(i.SetSysClockTo72) for SetSysClockTo72
    system_stm32f10x.o(i.SystemCoreClockUpdate) refers to system_stm32f10x.o(.data) for SystemCoreClock
    system_stm32f10x.o(i.SystemInit) refers to system_stm32f10x.o(i.SetSysClock) for SetSysClock
    led.o(i.LED_Init) refers to stm32f10x_rcc.o(i.RCC_APB2PeriphClockCmd) for RCC_APB2PeriphClockCmd
    led.o(i.LED_Init) refers to stm32f10x_gpio.o(i.GPIO_Init) for GPIO_Init
    led.o(i.LED_Init) refers to stm32f10x_gpio.o(i.GPIO_SetBits) for GPIO_SetBits
    led.o(i.System_PB34_setIO) refers to stm32f10x_rcc.o(i.RCC_APB2PeriphClockCmd) for RCC_APB2PeriphClockCmd
    led.o(i.System_PB34_setIO) refers to stm32f10x_gpio.o(i.GPIO_PinRemapConfig) for GPIO_PinRemapConfig
    key.o(i.KEY_Scan) refers to stm32f10x_gpio.o(i.GPIO_ReadInputDataBit) for GPIO_ReadInputDataBit
    key.o(i.KEY_Scan) refers to key.o(.data) for key_up
    key.o(i.Key_GPIO_Config) refers to stm32f10x_rcc.o(i.RCC_APB2PeriphClockCmd) for RCC_APB2PeriphClockCmd
    key.o(i.Key_GPIO_Config) refers to stm32f10x_gpio.o(i.GPIO_Init) for GPIO_Init
    key.o(i.Key_Scan) refers to stm32f10x_gpio.o(i.GPIO_ReadInputDataBit) for GPIO_ReadInputDataBit
    oled.o(i.GB16_NUM) refers to oled.o(.data) for hz_index
    oled.o(i.OLED_Clear) refers to oled.o(i.OLED_Fill) for OLED_Fill
    oled.o(i.OLED_ClearPoint) refers to oled.o(.bss) for OLED_GRAM
    oled.o(i.OLED_ColorTurn) refers to oled.o(i.OLED_WR_Byte) for OLED_WR_Byte
    oled.o(i.OLED_DisPlay_Off) refers to oled.o(i.OLED_WR_Byte) for OLED_WR_Byte
    oled.o(i.OLED_DisPlay_On) refers to oled.o(i.OLED_WR_Byte) for OLED_WR_Byte
    oled.o(i.OLED_DisplayTurn) refers to oled.o(i.OLED_WR_Byte) for OLED_WR_Byte
    oled.o(i.OLED_DrawCircle) refers to oled.o(i.OLED_DrawPoint) for OLED_DrawPoint
    oled.o(i.OLED_DrawPoint) refers to oled.o(.bss) for OLED_GRAM
    oled.o(i.OLED_Fill) refers to oled.o(i.OLED_WR_Byte) for OLED_WR_Byte
    oled.o(i.OLED_Init) refers to stm32f10x_rcc.o(i.RCC_APB2PeriphClockCmd) for RCC_APB2PeriphClockCmd
    oled.o(i.OLED_Init) refers to stm32f10x_gpio.o(i.GPIO_Init) for GPIO_Init
    oled.o(i.OLED_Init) refers to stm32f10x_gpio.o(i.GPIO_SetBits) for GPIO_SetBits
    oled.o(i.OLED_Init) refers to oled.o(i.OLED_WR_Byte) for OLED_WR_Byte
    oled.o(i.OLED_Init) refers to oled.o(i.OLED_Clear) for OLED_Clear
    oled.o(i.OLED_ShowCH) refers to oled.o(i.OLED_WR_BP) for OLED_WR_BP
    oled.o(i.OLED_ShowCH) refers to oled.o(i.OLED_WR_Byte) for OLED_WR_Byte
    oled.o(i.OLED_ShowCH) refers to strchr.o(.text) for strchr
    oled.o(i.OLED_ShowCH) refers to oled.o(.data) for hz_index
    oled.o(i.OLED_ShowChar) refers to oled.o(i.OLED_WR_BP) for OLED_WR_BP
    oled.o(i.OLED_ShowChar) refers to oled.o(i.OLED_WR_Byte) for OLED_WR_Byte
    oled.o(i.OLED_ShowChar) refers to oled.o(.data) for zf
    oled.o(i.OLED_ShowNum) refers to oled.o(i.OLED_Pow) for OLED_Pow
    oled.o(i.OLED_ShowNum) refers to oled.o(i.OLED_ShowChar) for OLED_ShowChar
    oled.o(i.OLED_ShowPicture) refers to oled.o(i.OLED_WR_BP) for OLED_WR_BP
    oled.o(i.OLED_ShowPicture) refers to oled.o(i.OLED_WR_Byte) for OLED_WR_Byte
    oled.o(i.OLED_WR_BP) refers to oled.o(i.OLED_WR_Byte) for OLED_WR_Byte
    oled.o(i.OLED_WR_Byte) refers to stm32f10x_gpio.o(i.GPIO_SetBits) for GPIO_SetBits
    oled.o(i.OLED_WR_Byte) refers to stm32f10x_gpio.o(i.GPIO_ResetBits) for GPIO_ResetBits
    flash.o(i.R_Test) refers to flash.o(i.System_ReadInteriorFlash) for System_ReadInteriorFlash
    flash.o(i.R_Test) refers to git.o(.bss) for device_state_init
    flash.o(i.R_Test) refers to flash.o(.data) for addrShort1
    flash.o(i.System_WriteInteriorFlash) refers to flash.o(i.waitForFlashBSY) for waitForFlashBSY
    flash.o(i.System_WriteInteriorFlash) refers to flash.o(i.System_ReadInteriorFlash) for System_ReadInteriorFlash
    flash.o(i.System_WriteInteriorFlash) refers to flash.o(.bss) for sectorbufferTemp
    flash.o(i.W_R_Test) refers to printfa.o(i.__0printf) for __2printf
    flash.o(i.W_R_Test) refers to flash.o(i.System_WriteInteriorFlash) for System_WriteInteriorFlash
    flash.o(i.W_R_Test) refers to flash.o(i.System_ReadInteriorFlash) for System_ReadInteriorFlash
    flash.o(i.W_Test) refers to flash.o(i.System_WriteInteriorFlash) for System_WriteInteriorFlash
    flash.o(i.W_Test) refers to git.o(.bss) for device_state_init
    flash.o(i.W_Test) refers to flash.o(.data) for addrShort1
    usart2.o(i.CLR_Buf) refers to memseta.o(.text) for __aeabi_memclr
    usart2.o(i.CLR_Buf) refers to usart2.o(.bss) for USART_RX2_BUF
    usart2.o(i.CLR_Buf) refers to usart2.o(.data) for point1
    usart2.o(i.Hand) refers to strstr.o(.text) for strstr
    usart2.o(i.Hand) refers to usart2.o(.bss) for USART_RX2_BUF
    usart2.o(i.USART2_IRQHandler) refers to stm32f10x_usart.o(i.USART_GetITStatus) for USART_GetITStatus
    usart2.o(i.USART2_IRQHandler) refers to stm32f10x_usart.o(i.USART_ReceiveData) for USART_ReceiveData
    usart2.o(i.USART2_IRQHandler) refers to memseta.o(.text) for __aeabi_memclr
    usart2.o(i.USART2_IRQHandler) refers to memcpya.o(.text) for __aeabi_memcpy
    usart2.o(i.USART2_IRQHandler) refers to usart2.o(.data) for point1
    usart2.o(i.USART2_IRQHandler) refers to usart2.o(.bss) for USART_RX2_BUF
    usart2.o(i.Usart2_Init) refers to stm32f10x_rcc.o(i.RCC_APB2PeriphClockCmd) for RCC_APB2PeriphClockCmd
    usart2.o(i.Usart2_Init) refers to stm32f10x_rcc.o(i.RCC_APB1PeriphClockCmd) for RCC_APB1PeriphClockCmd
    usart2.o(i.Usart2_Init) refers to stm32f10x_usart.o(i.USART_DeInit) for USART_DeInit
    usart2.o(i.Usart2_Init) refers to stm32f10x_gpio.o(i.GPIO_Init) for GPIO_Init
    usart2.o(i.Usart2_Init) refers to stm32f10x_usart.o(i.USART_Init) for USART_Init
    usart2.o(i.Usart2_Init) refers to stm32f10x_usart.o(i.USART_Cmd) for USART_Cmd
    usart2.o(i.Usart2_Init) refers to stm32f10x_usart.o(i.USART_ITConfig) for USART_ITConfig
    usart2.o(i.Usart2_Init) refers to misc.o(i.NVIC_Init) for NVIC_Init
    usart2.o(i.Usart2_Init) refers to usart2.o(i.CLR_Buf) for CLR_Buf
    usart2.o(i.clrStruct) refers to memseta.o(.text) for __aeabi_memclr
    usart2.o(i.clrStruct) refers to usart2.o(.bss) for Save_Data
    jr6001.o(i.JR6001_Init) refers to jr6001.o(i.JR6001_SongControl) for JR6001_SongControl
    jr6001.o(i.JR6001_Init) refers to jr6001.o(i.JR6001_Volumecontrol) for JR6001_Volumecontrol
    jr6001.o(i.JR6001_Init) refers to delay.o(i.delay_ms) for delay_ms
    jr6001.o(i.JR6001_Instruction) refers to printfa.o(i.__0sprintf) for __2sprintf
    jr6001.o(i.JR6001_Instruction) refers to jr6001.o(i.JR6001_SendCode) for JR6001_SendCode
    jr6001.o(i.JR6001_SendCode) refers to strlen.o(.text) for strlen
    jr6001.o(i.JR6001_SendCode) refers to stm32f10x_gpio.o(i.GPIO_ReadInputDataBit) for GPIO_ReadInputDataBit
    jr6001.o(i.JR6001_SendCode) refers to printfa.o(i.__0printf) for __2printf
    jr6001.o(i.JR6001_SendCode) refers to stm32f10x_usart.o(i.USART_GetFlagStatus) for USART_GetFlagStatus
    jr6001.o(i.JR6001_SendCode) refers to stm32f10x_usart.o(i.USART_SendData) for USART_SendData
    jr6001.o(i.JR6001_SendCode) refers to delay.o(i.delay_ms) for delay_ms
    jr6001.o(i.JR6001_SongControl) refers to printfa.o(i.__0sprintf) for __2sprintf
    jr6001.o(i.JR6001_SongControl) refers to jr6001.o(i.JR6001_SendCode) for JR6001_SendCode
    jr6001.o(i.JR6001_Volumecontrol) refers to printfa.o(i.__0sprintf) for __2sprintf
    jr6001.o(i.JR6001_Volumecontrol) refers to jr6001.o(i.JR6001_SendCode) for JR6001_SendCode
    hmc5883l.o(i.GY_IIC_Ack) refers to hmc5883l.o(i.GY_SDA_OUT) for GY_SDA_OUT
    hmc5883l.o(i.GY_IIC_Ack) refers to hmc5883l.o(i.GY_IIC_Delay) for GY_IIC_Delay
    hmc5883l.o(i.GY_IIC_Delay) refers to delay.o(i.delay_us) for delay_us
    hmc5883l.o(i.GY_IIC_Init) refers to stm32f10x_rcc.o(i.RCC_APB2PeriphClockCmd) for RCC_APB2PeriphClockCmd
    hmc5883l.o(i.GY_IIC_Init) refers to stm32f10x_gpio.o(i.GPIO_Init) for GPIO_Init
    hmc5883l.o(i.GY_IIC_NAck) refers to hmc5883l.o(i.GY_SDA_OUT) for GY_SDA_OUT
    hmc5883l.o(i.GY_IIC_NAck) refers to hmc5883l.o(i.GY_IIC_Delay) for GY_IIC_Delay
    hmc5883l.o(i.GY_IIC_Read_Byte) refers to hmc5883l.o(i.GY_SDA_IN) for GY_SDA_IN
    hmc5883l.o(i.GY_IIC_Read_Byte) refers to hmc5883l.o(i.GY_IIC_Delay) for GY_IIC_Delay
    hmc5883l.o(i.GY_IIC_Read_Byte) refers to hmc5883l.o(i.GY_IIC_NAck) for GY_IIC_NAck
    hmc5883l.o(i.GY_IIC_Read_Byte) refers to hmc5883l.o(i.GY_IIC_Ack) for GY_IIC_Ack
    hmc5883l.o(i.GY_IIC_Send_Byte) refers to hmc5883l.o(i.GY_SDA_OUT) for GY_SDA_OUT
    hmc5883l.o(i.GY_IIC_Send_Byte) refers to hmc5883l.o(i.GY_IIC_Delay) for GY_IIC_Delay
    hmc5883l.o(i.GY_IIC_Start) refers to hmc5883l.o(i.GY_SDA_OUT) for GY_SDA_OUT
    hmc5883l.o(i.GY_IIC_Start) refers to hmc5883l.o(i.GY_IIC_Delay) for GY_IIC_Delay
    hmc5883l.o(i.GY_IIC_Stop) refers to hmc5883l.o(i.GY_SDA_OUT) for GY_SDA_OUT
    hmc5883l.o(i.GY_IIC_Stop) refers to hmc5883l.o(i.GY_IIC_Delay) for GY_IIC_Delay
    hmc5883l.o(i.GY_IIC_Wait_Ack) refers to hmc5883l.o(i.GY_SDA_IN) for GY_SDA_IN
    hmc5883l.o(i.GY_IIC_Wait_Ack) refers to hmc5883l.o(i.GY_IIC_Delay) for GY_IIC_Delay
    hmc5883l.o(i.GY_IIC_Wait_Ack) refers to hmc5883l.o(i.GY_IIC_Stop) for GY_IIC_Stop
    hmc5883l.o(i.GY_SDA_IN) refers to stm32f10x_rcc.o(i.RCC_APB2PeriphClockCmd) for RCC_APB2PeriphClockCmd
    hmc5883l.o(i.GY_SDA_IN) refers to stm32f10x_gpio.o(i.GPIO_Init) for GPIO_Init
    hmc5883l.o(i.GY_SDA_OUT) refers to stm32f10x_rcc.o(i.RCC_APB2PeriphClockCmd) for RCC_APB2PeriphClockCmd
    hmc5883l.o(i.GY_SDA_OUT) refers to stm32f10x_gpio.o(i.GPIO_Init) for GPIO_Init
    hmc5883l.o(i.HMC5883_Get_Angle) refers to hmc5883l.o(i.HMC5883_SB_Read) for HMC5883_SB_Read
    hmc5883l.o(i.HMC5883_Get_Angle) refers to dflti.o(.text) for __aeabi_i2d
    hmc5883l.o(i.HMC5883_Get_Angle) refers to atan2.o(i.atan2) for atan2
    hmc5883l.o(i.HMC5883_Get_Angle) refers to dmul.o(.text) for __aeabi_dmul
    hmc5883l.o(i.HMC5883_Get_Angle) refers to dadd.o(.text) for __aeabi_dadd
    hmc5883l.o(i.HMC5883_Get_Angle) refers to d2f.o(.text) for __aeabi_d2f
    hmc5883l.o(i.HMC5883_Get_Angle) refers to hmc5883l.o(.bss) for hmc_xyz_init
    hmc5883l.o(i.HMC5883_Get_XYZ) refers to hmc5883l.o(i.HMC5883_SB_Read) for HMC5883_SB_Read
    hmc5883l.o(i.HMC5883_Init) refers to hmc5883l.o(i.GY_IIC_Init) for GY_IIC_Init
    hmc5883l.o(i.HMC5883_Init) refers to hmc5883l.o(i.HMC5883_SB_Read) for HMC5883_SB_Read
    hmc5883l.o(i.HMC5883_Init) refers to printfa.o(i.__0printf) for __2printf
    hmc5883l.o(i.HMC5883_Init) refers to hmc5883l.o(i.HMC5883_SB_Write) for HMC5883_SB_Write
    hmc5883l.o(i.HMC5883_Init) refers to hmc5883l.o(.conststring) for .conststring
    hmc5883l.o(i.HMC5883_SB_Read) refers to hmc5883l.o(i.GY_IIC_Start) for GY_IIC_Start
    hmc5883l.o(i.HMC5883_SB_Read) refers to hmc5883l.o(i.GY_IIC_Send_Byte) for GY_IIC_Send_Byte
    hmc5883l.o(i.HMC5883_SB_Read) refers to hmc5883l.o(i.GY_IIC_Wait_Ack) for GY_IIC_Wait_Ack
    hmc5883l.o(i.HMC5883_SB_Read) refers to hmc5883l.o(i.GY_IIC_Read_Byte) for GY_IIC_Read_Byte
    hmc5883l.o(i.HMC5883_SB_Read) refers to hmc5883l.o(i.GY_IIC_Stop) for GY_IIC_Stop
    hmc5883l.o(i.HMC5883_SB_Read) refers to hmc5883l.o(.data) for Res_Data
    hmc5883l.o(i.HMC5883_SB_Write) refers to hmc5883l.o(i.GY_IIC_Start) for GY_IIC_Start
    hmc5883l.o(i.HMC5883_SB_Write) refers to hmc5883l.o(i.GY_IIC_Send_Byte) for GY_IIC_Send_Byte
    hmc5883l.o(i.HMC5883_SB_Write) refers to hmc5883l.o(i.GY_IIC_Wait_Ack) for GY_IIC_Wait_Ack
    hmc5883l.o(i.HMC5883_SB_Write) refers to hmc5883l.o(i.GY_IIC_Stop) for GY_IIC_Stop
    delay.o(i.delay_init) refers to misc.o(i.SysTick_CLKSourceConfig) for SysTick_CLKSourceConfig
    delay.o(i.delay_init) refers to system_stm32f10x.o(.data) for SystemCoreClock
    delay.o(i.delay_init) refers to delay.o(.data) for fac_us
    delay.o(i.delay_ms) refers to delay.o(.data) for fac_ms
    delay.o(i.delay_us) refers to delay.o(.data) for fac_us
    usart.o(i.USART1_IRQHandler) refers to stm32f10x_usart.o(i.USART_GetITStatus) for USART_GetITStatus
    usart.o(i.USART1_IRQHandler) refers to stm32f10x_usart.o(i.USART_ReceiveData) for USART_ReceiveData
    usart.o(i.USART1_IRQHandler) refers to usart.o(.data) for USART_RX_STA
    usart.o(i.USART1_IRQHandler) refers to usart.o(.bss) for USART_RX_BUF
    usart.o(i.Usart1_Init) refers to stm32f10x_rcc.o(i.RCC_APB2PeriphClockCmd) for RCC_APB2PeriphClockCmd
    usart.o(i.Usart1_Init) refers to stm32f10x_gpio.o(i.GPIO_Init) for GPIO_Init
    usart.o(i.Usart1_Init) refers to misc.o(i.NVIC_Init) for NVIC_Init
    usart.o(i.Usart1_Init) refers to stm32f10x_usart.o(i.USART_Init) for USART_Init
    usart.o(i.Usart1_Init) refers to stm32f10x_usart.o(i.USART_ITConfig) for USART_ITConfig
    usart.o(i.Usart1_Init) refers to stm32f10x_usart.o(i.USART_Cmd) for USART_Cmd
    usart.o(i.Usart_SendArray) refers to usart.o(i.Usart_SendByte) for Usart_SendByte
    usart.o(i.Usart_SendArray) refers to stm32f10x_usart.o(i.USART_GetFlagStatus) for USART_GetFlagStatus
    usart.o(i.Usart_SendByte) refers to stm32f10x_usart.o(i.USART_SendData) for USART_SendData
    usart.o(i.Usart_SendByte) refers to stm32f10x_usart.o(i.USART_GetFlagStatus) for USART_GetFlagStatus
    usart.o(i.Usart_SendHalfWord) refers to stm32f10x_usart.o(i.USART_SendData) for USART_SendData
    usart.o(i.Usart_SendHalfWord) refers to stm32f10x_usart.o(i.USART_GetFlagStatus) for USART_GetFlagStatus
    usart.o(i.Usart_SendString) refers to usart.o(i.Usart_SendByte) for Usart_SendByte
    usart.o(i.Usart_SendString) refers to stm32f10x_usart.o(i.USART_GetFlagStatus) for USART_GetFlagStatus
    startup_stm32f10x_hd.o(RESET) refers to startup_stm32f10x_hd.o(STACK) for __initial_sp
    startup_stm32f10x_hd.o(RESET) refers to startup_stm32f10x_hd.o(.text) for Reset_Handler
    startup_stm32f10x_hd.o(RESET) refers to stm32f10x_it.o(i.NMI_Handler) for NMI_Handler
    startup_stm32f10x_hd.o(RESET) refers to stm32f10x_it.o(i.HardFault_Handler) for HardFault_Handler
    startup_stm32f10x_hd.o(RESET) refers to stm32f10x_it.o(i.MemManage_Handler) for MemManage_Handler
    startup_stm32f10x_hd.o(RESET) refers to stm32f10x_it.o(i.BusFault_Handler) for BusFault_Handler
    startup_stm32f10x_hd.o(RESET) refers to stm32f10x_it.o(i.UsageFault_Handler) for UsageFault_Handler
    startup_stm32f10x_hd.o(RESET) refers to stm32f10x_it.o(i.SVC_Handler) for SVC_Handler
    startup_stm32f10x_hd.o(RESET) refers to stm32f10x_it.o(i.DebugMon_Handler) for DebugMon_Handler
    startup_stm32f10x_hd.o(RESET) refers to stm32f10x_it.o(i.PendSV_Handler) for PendSV_Handler
    startup_stm32f10x_hd.o(RESET) refers to stm32f10x_it.o(i.SysTick_Handler) for SysTick_Handler
    startup_stm32f10x_hd.o(RESET) refers to timer.o(i.TIM4_IRQHandler) for TIM4_IRQHandler
    startup_stm32f10x_hd.o(RESET) refers to usart.o(i.USART1_IRQHandler) for USART1_IRQHandler
    startup_stm32f10x_hd.o(RESET) refers to usart2.o(i.USART2_IRQHandler) for USART2_IRQHandler
    startup_stm32f10x_hd.o(RESET) refers to usart3.o(i.USART3_IRQHandler) for USART3_IRQHandler
    startup_stm32f10x_hd.o(.text) refers to system_stm32f10x.o(i.SystemInit) for SystemInit
    startup_stm32f10x_hd.o(.text) refers to entry.o(.ARM.Collect$$$$00000000) for __main
    stm32f10x_gpio.o(i.GPIO_AFIODeInit) refers to stm32f10x_rcc.o(i.RCC_APB2PeriphResetCmd) for RCC_APB2PeriphResetCmd
    stm32f10x_gpio.o(i.GPIO_DeInit) refers to stm32f10x_rcc.o(i.RCC_APB2PeriphResetCmd) for RCC_APB2PeriphResetCmd
    stm32f10x_usart.o(i.USART_DeInit) refers to stm32f10x_rcc.o(i.RCC_APB2PeriphResetCmd) for RCC_APB2PeriphResetCmd
    stm32f10x_usart.o(i.USART_DeInit) refers to stm32f10x_rcc.o(i.RCC_APB1PeriphResetCmd) for RCC_APB1PeriphResetCmd
    stm32f10x_usart.o(i.USART_Init) refers to stm32f10x_rcc.o(i.RCC_GetClocksFreq) for RCC_GetClocksFreq
    stm32f10x_flash.o(i.FLASH_EnableWriteProtection) refers to stm32f10x_flash.o(i.FLASH_WaitForLastOperation) for FLASH_WaitForLastOperation
    stm32f10x_flash.o(i.FLASH_EraseAllBank1Pages) refers to stm32f10x_flash.o(i.FLASH_WaitForLastBank1Operation) for FLASH_WaitForLastBank1Operation
    stm32f10x_flash.o(i.FLASH_EraseAllPages) refers to stm32f10x_flash.o(i.FLASH_WaitForLastOperation) for FLASH_WaitForLastOperation
    stm32f10x_flash.o(i.FLASH_EraseOptionBytes) refers to stm32f10x_flash.o(i.FLASH_GetReadOutProtectionStatus) for FLASH_GetReadOutProtectionStatus
    stm32f10x_flash.o(i.FLASH_EraseOptionBytes) refers to stm32f10x_flash.o(i.FLASH_WaitForLastOperation) for FLASH_WaitForLastOperation
    stm32f10x_flash.o(i.FLASH_ErasePage) refers to stm32f10x_flash.o(i.FLASH_WaitForLastOperation) for FLASH_WaitForLastOperation
    stm32f10x_flash.o(i.FLASH_ProgramHalfWord) refers to stm32f10x_flash.o(i.FLASH_WaitForLastOperation) for FLASH_WaitForLastOperation
    stm32f10x_flash.o(i.FLASH_ProgramOptionByteData) refers to stm32f10x_flash.o(i.FLASH_WaitForLastOperation) for FLASH_WaitForLastOperation
    stm32f10x_flash.o(i.FLASH_ProgramWord) refers to stm32f10x_flash.o(i.FLASH_WaitForLastOperation) for FLASH_WaitForLastOperation
    stm32f10x_flash.o(i.FLASH_ReadOutProtection) refers to stm32f10x_flash.o(i.FLASH_WaitForLastOperation) for FLASH_WaitForLastOperation
    stm32f10x_flash.o(i.FLASH_UserOptionByteConfig) refers to stm32f10x_flash.o(i.FLASH_WaitForLastOperation) for FLASH_WaitForLastOperation
    stm32f10x_flash.o(i.FLASH_WaitForLastBank1Operation) refers to stm32f10x_flash.o(i.FLASH_GetBank1Status) for FLASH_GetBank1Status
    stm32f10x_flash.o(i.FLASH_WaitForLastOperation) refers to stm32f10x_flash.o(i.FLASH_GetBank1Status) for FLASH_GetBank1Status
    stm32f10x_tim.o(i.TIM_DeInit) refers to stm32f10x_rcc.o(i.RCC_APB2PeriphResetCmd) for RCC_APB2PeriphResetCmd
    stm32f10x_tim.o(i.TIM_DeInit) refers to stm32f10x_rcc.o(i.RCC_APB1PeriphResetCmd) for RCC_APB1PeriphResetCmd
    stm32f10x_tim.o(i.TIM_ETRClockMode1Config) refers to stm32f10x_tim.o(i.TIM_ETRConfig) for TIM_ETRConfig
    stm32f10x_tim.o(i.TIM_ETRClockMode2Config) refers to stm32f10x_tim.o(i.TIM_ETRConfig) for TIM_ETRConfig
    stm32f10x_tim.o(i.TIM_ICInit) refers to stm32f10x_tim.o(i.TI1_Config) for TI1_Config
    stm32f10x_tim.o(i.TIM_ICInit) refers to stm32f10x_tim.o(i.TIM_SetIC1Prescaler) for TIM_SetIC1Prescaler
    stm32f10x_tim.o(i.TIM_ICInit) refers to stm32f10x_tim.o(i.TI2_Config) for TI2_Config
    stm32f10x_tim.o(i.TIM_ICInit) refers to stm32f10x_tim.o(i.TIM_SetIC2Prescaler) for TIM_SetIC2Prescaler
    stm32f10x_tim.o(i.TIM_ICInit) refers to stm32f10x_tim.o(i.TI3_Config) for TI3_Config
    stm32f10x_tim.o(i.TIM_ICInit) refers to stm32f10x_tim.o(i.TIM_SetIC3Prescaler) for TIM_SetIC3Prescaler
    stm32f10x_tim.o(i.TIM_ICInit) refers to stm32f10x_tim.o(i.TI4_Config) for TI4_Config
    stm32f10x_tim.o(i.TIM_ICInit) refers to stm32f10x_tim.o(i.TIM_SetIC4Prescaler) for TIM_SetIC4Prescaler
    stm32f10x_tim.o(i.TIM_ITRxExternalClockConfig) refers to stm32f10x_tim.o(i.TIM_SelectInputTrigger) for TIM_SelectInputTrigger
    stm32f10x_tim.o(i.TIM_PWMIConfig) refers to stm32f10x_tim.o(i.TI1_Config) for TI1_Config
    stm32f10x_tim.o(i.TIM_PWMIConfig) refers to stm32f10x_tim.o(i.TIM_SetIC1Prescaler) for TIM_SetIC1Prescaler
    stm32f10x_tim.o(i.TIM_PWMIConfig) refers to stm32f10x_tim.o(i.TI2_Config) for TI2_Config
    stm32f10x_tim.o(i.TIM_PWMIConfig) refers to stm32f10x_tim.o(i.TIM_SetIC2Prescaler) for TIM_SetIC2Prescaler
    stm32f10x_tim.o(i.TIM_TIxExternalClockConfig) refers to stm32f10x_tim.o(i.TI2_Config) for TI2_Config
    stm32f10x_tim.o(i.TIM_TIxExternalClockConfig) refers to stm32f10x_tim.o(i.TI1_Config) for TI1_Config
    stm32f10x_tim.o(i.TIM_TIxExternalClockConfig) refers to stm32f10x_tim.o(i.TIM_SelectInputTrigger) for TIM_SelectInputTrigger
    stm32f10x_adc.o(i.ADC_DeInit) refers to stm32f10x_rcc.o(i.RCC_APB2PeriphResetCmd) for RCC_APB2PeriphResetCmd
    stm32f10x_pwr.o(i.PWR_DeInit) refers to stm32f10x_rcc.o(i.RCC_APB1PeriphResetCmd) for RCC_APB1PeriphResetCmd
    stm32f10x_rcc.o(i.RCC_GetClocksFreq) refers to stm32f10x_rcc.o(.data) for APBAHBPrescTable
    stm32f10x_rcc.o(i.RCC_WaitForHSEStartUp) refers to stm32f10x_rcc.o(i.RCC_GetFlagStatus) for RCC_GetFlagStatus
    stm32f10x_wwdg.o(i.WWDG_DeInit) refers to stm32f10x_rcc.o(i.RCC_APB1PeriphResetCmd) for RCC_APB1PeriphResetCmd
    cjson.o(i.add_item_to_array) refers to cjson.o(i.suffix_object) for suffix_object
    cjson.o(i.add_item_to_object) refers to cjson.o(i.cast_away_const) for cast_away_const
    cjson.o(i.add_item_to_object) refers to cjson.o(i.cJSON_strdup) for cJSON_strdup
    cjson.o(i.add_item_to_object) refers to cjson.o(i.add_item_to_array) for add_item_to_array
    cjson.o(i.cJSON_AddArrayToObject) refers to cjson.o(i.cJSON_CreateArray) for cJSON_CreateArray
    cjson.o(i.cJSON_AddArrayToObject) refers to cjson.o(i.add_item_to_object) for add_item_to_object
    cjson.o(i.cJSON_AddArrayToObject) refers to cjson.o(i.cJSON_Delete) for cJSON_Delete
    cjson.o(i.cJSON_AddArrayToObject) refers to cjson.o(.data) for global_hooks
    cjson.o(i.cJSON_AddBoolToObject) refers to cjson.o(i.cJSON_CreateBool) for cJSON_CreateBool
    cjson.o(i.cJSON_AddBoolToObject) refers to cjson.o(i.add_item_to_object) for add_item_to_object
    cjson.o(i.cJSON_AddBoolToObject) refers to cjson.o(i.cJSON_Delete) for cJSON_Delete
    cjson.o(i.cJSON_AddBoolToObject) refers to cjson.o(.data) for global_hooks
    cjson.o(i.cJSON_AddFalseToObject) refers to cjson.o(i.cJSON_CreateFalse) for cJSON_CreateFalse
    cjson.o(i.cJSON_AddFalseToObject) refers to cjson.o(i.add_item_to_object) for add_item_to_object
    cjson.o(i.cJSON_AddFalseToObject) refers to cjson.o(i.cJSON_Delete) for cJSON_Delete
    cjson.o(i.cJSON_AddFalseToObject) refers to cjson.o(.data) for global_hooks
    cjson.o(i.cJSON_AddItemReferenceToArray) refers to cjson.o(i.create_reference) for create_reference
    cjson.o(i.cJSON_AddItemReferenceToArray) refers to cjson.o(i.add_item_to_array) for add_item_to_array
    cjson.o(i.cJSON_AddItemReferenceToArray) refers to cjson.o(.data) for global_hooks
    cjson.o(i.cJSON_AddItemReferenceToObject) refers to cjson.o(i.create_reference) for create_reference
    cjson.o(i.cJSON_AddItemReferenceToObject) refers to cjson.o(i.add_item_to_object) for add_item_to_object
    cjson.o(i.cJSON_AddItemReferenceToObject) refers to cjson.o(.data) for global_hooks
    cjson.o(i.cJSON_AddItemToArray) refers to cjson.o(i.add_item_to_array) for add_item_to_array
    cjson.o(i.cJSON_AddItemToObject) refers to cjson.o(i.add_item_to_object) for add_item_to_object
    cjson.o(i.cJSON_AddItemToObject) refers to cjson.o(.data) for global_hooks
    cjson.o(i.cJSON_AddItemToObjectCS) refers to cjson.o(i.add_item_to_object) for add_item_to_object
    cjson.o(i.cJSON_AddItemToObjectCS) refers to cjson.o(.data) for global_hooks
    cjson.o(i.cJSON_AddNullToObject) refers to cjson.o(i.cJSON_CreateNull) for cJSON_CreateNull
    cjson.o(i.cJSON_AddNullToObject) refers to cjson.o(i.add_item_to_object) for add_item_to_object
    cjson.o(i.cJSON_AddNullToObject) refers to cjson.o(i.cJSON_Delete) for cJSON_Delete
    cjson.o(i.cJSON_AddNullToObject) refers to cjson.o(.data) for global_hooks
    cjson.o(i.cJSON_AddNumberToObject) refers to cjson.o(i.cJSON_CreateNumber) for cJSON_CreateNumber
    cjson.o(i.cJSON_AddNumberToObject) refers to cjson.o(i.add_item_to_object) for add_item_to_object
    cjson.o(i.cJSON_AddNumberToObject) refers to cjson.o(i.cJSON_Delete) for cJSON_Delete
    cjson.o(i.cJSON_AddNumberToObject) refers to cjson.o(.data) for global_hooks
    cjson.o(i.cJSON_AddObjectToObject) refers to cjson.o(i.cJSON_CreateObject) for cJSON_CreateObject
    cjson.o(i.cJSON_AddObjectToObject) refers to cjson.o(i.add_item_to_object) for add_item_to_object
    cjson.o(i.cJSON_AddObjectToObject) refers to cjson.o(i.cJSON_Delete) for cJSON_Delete
    cjson.o(i.cJSON_AddObjectToObject) refers to cjson.o(.data) for global_hooks
    cjson.o(i.cJSON_AddRawToObject) refers to cjson.o(i.cJSON_CreateRaw) for cJSON_CreateRaw
    cjson.o(i.cJSON_AddRawToObject) refers to cjson.o(i.add_item_to_object) for add_item_to_object
    cjson.o(i.cJSON_AddRawToObject) refers to cjson.o(i.cJSON_Delete) for cJSON_Delete
    cjson.o(i.cJSON_AddRawToObject) refers to cjson.o(.data) for global_hooks
    cjson.o(i.cJSON_AddStringToObject) refers to cjson.o(i.cJSON_CreateString) for cJSON_CreateString
    cjson.o(i.cJSON_AddStringToObject) refers to cjson.o(i.add_item_to_object) for add_item_to_object
    cjson.o(i.cJSON_AddStringToObject) refers to cjson.o(i.cJSON_Delete) for cJSON_Delete
    cjson.o(i.cJSON_AddStringToObject) refers to cjson.o(.data) for global_hooks
    cjson.o(i.cJSON_AddTrueToObject) refers to cjson.o(i.cJSON_CreateTrue) for cJSON_CreateTrue
    cjson.o(i.cJSON_AddTrueToObject) refers to cjson.o(i.add_item_to_object) for add_item_to_object
    cjson.o(i.cJSON_AddTrueToObject) refers to cjson.o(i.cJSON_Delete) for cJSON_Delete
    cjson.o(i.cJSON_AddTrueToObject) refers to cjson.o(.data) for global_hooks
    cjson.o(i.cJSON_Compare) refers to cjson.o(i.compare_double) for compare_double
    cjson.o(i.cJSON_Compare) refers to strcmp.o(.text) for strcmp
    cjson.o(i.cJSON_Compare) refers to cjson.o(i.get_object_item) for get_object_item
    cjson.o(i.cJSON_CreateArray) refers to cjson.o(i.cJSON_New_Item) for cJSON_New_Item
    cjson.o(i.cJSON_CreateArray) refers to cjson.o(.data) for global_hooks
    cjson.o(i.cJSON_CreateArrayReference) refers to cjson.o(i.cJSON_New_Item) for cJSON_New_Item
    cjson.o(i.cJSON_CreateArrayReference) refers to cjson.o(i.cast_away_const) for cast_away_const
    cjson.o(i.cJSON_CreateArrayReference) refers to cjson.o(.data) for global_hooks
    cjson.o(i.cJSON_CreateBool) refers to cjson.o(i.cJSON_New_Item) for cJSON_New_Item
    cjson.o(i.cJSON_CreateBool) refers to cjson.o(.data) for global_hooks
    cjson.o(i.cJSON_CreateDoubleArray) refers to cjson.o(i.cJSON_CreateArray) for cJSON_CreateArray
    cjson.o(i.cJSON_CreateDoubleArray) refers to cjson.o(i.cJSON_CreateNumber) for cJSON_CreateNumber
    cjson.o(i.cJSON_CreateDoubleArray) refers to cjson.o(i.cJSON_Delete) for cJSON_Delete
    cjson.o(i.cJSON_CreateDoubleArray) refers to cjson.o(i.suffix_object) for suffix_object
    cjson.o(i.cJSON_CreateFalse) refers to cjson.o(i.cJSON_New_Item) for cJSON_New_Item
    cjson.o(i.cJSON_CreateFalse) refers to cjson.o(.data) for global_hooks
    cjson.o(i.cJSON_CreateFloatArray) refers to cjson.o(i.cJSON_CreateArray) for cJSON_CreateArray
    cjson.o(i.cJSON_CreateFloatArray) refers to f2d.o(.text) for __aeabi_f2d
    cjson.o(i.cJSON_CreateFloatArray) refers to cjson.o(i.cJSON_CreateNumber) for cJSON_CreateNumber
    cjson.o(i.cJSON_CreateFloatArray) refers to cjson.o(i.cJSON_Delete) for cJSON_Delete
    cjson.o(i.cJSON_CreateFloatArray) refers to cjson.o(i.suffix_object) for suffix_object
    cjson.o(i.cJSON_CreateIntArray) refers to cjson.o(i.cJSON_CreateArray) for cJSON_CreateArray
    cjson.o(i.cJSON_CreateIntArray) refers to dflti.o(.text) for __aeabi_i2d
    cjson.o(i.cJSON_CreateIntArray) refers to cjson.o(i.cJSON_CreateNumber) for cJSON_CreateNumber
    cjson.o(i.cJSON_CreateIntArray) refers to cjson.o(i.cJSON_Delete) for cJSON_Delete
    cjson.o(i.cJSON_CreateIntArray) refers to cjson.o(i.suffix_object) for suffix_object
    cjson.o(i.cJSON_CreateNull) refers to cjson.o(i.cJSON_New_Item) for cJSON_New_Item
    cjson.o(i.cJSON_CreateNull) refers to cjson.o(.data) for global_hooks
    cjson.o(i.cJSON_CreateNumber) refers to cjson.o(i.cJSON_New_Item) for cJSON_New_Item
    cjson.o(i.cJSON_CreateNumber) refers to cdrcmple.o(.text) for __aeabi_cdrcmple
    cjson.o(i.cJSON_CreateNumber) refers to cdcmple.o(.text) for __aeabi_cdcmple
    cjson.o(i.cJSON_CreateNumber) refers to dfixi.o(.text) for __aeabi_d2iz
    cjson.o(i.cJSON_CreateNumber) refers to cjson.o(.data) for global_hooks
    cjson.o(i.cJSON_CreateObject) refers to cjson.o(i.cJSON_New_Item) for cJSON_New_Item
    cjson.o(i.cJSON_CreateObject) refers to cjson.o(.data) for global_hooks
    cjson.o(i.cJSON_CreateObjectReference) refers to cjson.o(i.cJSON_New_Item) for cJSON_New_Item
    cjson.o(i.cJSON_CreateObjectReference) refers to cjson.o(i.cast_away_const) for cast_away_const
    cjson.o(i.cJSON_CreateObjectReference) refers to cjson.o(.data) for global_hooks
    cjson.o(i.cJSON_CreateRaw) refers to cjson.o(i.cJSON_New_Item) for cJSON_New_Item
    cjson.o(i.cJSON_CreateRaw) refers to cjson.o(i.cJSON_strdup) for cJSON_strdup
    cjson.o(i.cJSON_CreateRaw) refers to cjson.o(i.cJSON_Delete) for cJSON_Delete
    cjson.o(i.cJSON_CreateRaw) refers to cjson.o(.data) for global_hooks
    cjson.o(i.cJSON_CreateString) refers to cjson.o(i.cJSON_New_Item) for cJSON_New_Item
    cjson.o(i.cJSON_CreateString) refers to cjson.o(i.cJSON_strdup) for cJSON_strdup
    cjson.o(i.cJSON_CreateString) refers to cjson.o(i.cJSON_Delete) for cJSON_Delete
    cjson.o(i.cJSON_CreateString) refers to cjson.o(.data) for global_hooks
    cjson.o(i.cJSON_CreateStringArray) refers to cjson.o(i.cJSON_CreateArray) for cJSON_CreateArray
    cjson.o(i.cJSON_CreateStringArray) refers to cjson.o(i.cJSON_CreateString) for cJSON_CreateString
    cjson.o(i.cJSON_CreateStringArray) refers to cjson.o(i.cJSON_Delete) for cJSON_Delete
    cjson.o(i.cJSON_CreateStringArray) refers to cjson.o(i.suffix_object) for suffix_object
    cjson.o(i.cJSON_CreateStringReference) refers to cjson.o(i.cJSON_New_Item) for cJSON_New_Item
    cjson.o(i.cJSON_CreateStringReference) refers to cjson.o(i.cast_away_const) for cast_away_const
    cjson.o(i.cJSON_CreateStringReference) refers to cjson.o(.data) for global_hooks
    cjson.o(i.cJSON_CreateTrue) refers to cjson.o(i.cJSON_New_Item) for cJSON_New_Item
    cjson.o(i.cJSON_CreateTrue) refers to cjson.o(.data) for global_hooks
    cjson.o(i.cJSON_Delete) refers to cjson.o(.data) for global_hooks
    cjson.o(i.cJSON_DeleteItemFromArray) refers to cjson.o(i.cJSON_DetachItemFromArray) for cJSON_DetachItemFromArray
    cjson.o(i.cJSON_DeleteItemFromArray) refers to cjson.o(i.cJSON_Delete) for cJSON_Delete
    cjson.o(i.cJSON_DeleteItemFromObject) refers to cjson.o(i.cJSON_DetachItemFromObject) for cJSON_DetachItemFromObject
    cjson.o(i.cJSON_DeleteItemFromObject) refers to cjson.o(i.cJSON_Delete) for cJSON_Delete
    cjson.o(i.cJSON_DeleteItemFromObjectCaseSensitive) refers to cjson.o(i.cJSON_DetachItemFromObjectCaseSensitive) for cJSON_DetachItemFromObjectCaseSensitive
    cjson.o(i.cJSON_DeleteItemFromObjectCaseSensitive) refers to cjson.o(i.cJSON_Delete) for cJSON_Delete
    cjson.o(i.cJSON_DetachItemFromArray) refers to cjson.o(i.get_array_item) for get_array_item
    cjson.o(i.cJSON_DetachItemFromArray) refers to cjson.o(i.cJSON_DetachItemViaPointer) for cJSON_DetachItemViaPointer
    cjson.o(i.cJSON_DetachItemFromObject) refers to cjson.o(i.cJSON_GetObjectItem) for cJSON_GetObjectItem
    cjson.o(i.cJSON_DetachItemFromObject) refers to cjson.o(i.cJSON_DetachItemViaPointer) for cJSON_DetachItemViaPointer
    cjson.o(i.cJSON_DetachItemFromObjectCaseSensitive) refers to cjson.o(i.cJSON_GetObjectItemCaseSensitive) for cJSON_GetObjectItemCaseSensitive
    cjson.o(i.cJSON_DetachItemFromObjectCaseSensitive) refers to cjson.o(i.cJSON_DetachItemViaPointer) for cJSON_DetachItemViaPointer
    cjson.o(i.cJSON_Duplicate) refers to cjson.o(i.cJSON_New_Item) for cJSON_New_Item
    cjson.o(i.cJSON_Duplicate) refers to cjson.o(i.cJSON_strdup) for cJSON_strdup
    cjson.o(i.cJSON_Duplicate) refers to cjson.o(i.cJSON_Delete) for cJSON_Delete
    cjson.o(i.cJSON_Duplicate) refers to cjson.o(.data) for global_hooks
    cjson.o(i.cJSON_GetArrayItem) refers to cjson.o(i.get_array_item) for get_array_item
    cjson.o(i.cJSON_GetErrorPtr) refers to cjson.o(.data) for global_error
    cjson.o(i.cJSON_GetNumberValue) refers to cjson.o(i.cJSON_IsNumber) for cJSON_IsNumber
    cjson.o(i.cJSON_GetObjectItem) refers to cjson.o(i.get_object_item) for get_object_item
    cjson.o(i.cJSON_GetObjectItemCaseSensitive) refers to cjson.o(i.get_object_item) for get_object_item
    cjson.o(i.cJSON_GetStringValue) refers to cjson.o(i.cJSON_IsString) for cJSON_IsString
    cjson.o(i.cJSON_HasObjectItem) refers to cjson.o(i.cJSON_GetObjectItem) for cJSON_GetObjectItem
    cjson.o(i.cJSON_InitHooks) refers to mallocr.o(i.__malloc$realloc) for malloc
    cjson.o(i.cJSON_InitHooks) refers to cjson.o(.data) for global_hooks
    cjson.o(i.cJSON_InitHooks) refers to mallocr.o(i.__free$realloc) for free
    cjson.o(i.cJSON_InitHooks) refers to mallocr.o(i.realloc) for realloc
    cjson.o(i.cJSON_InsertItemInArray) refers to cjson.o(i.get_array_item) for get_array_item
    cjson.o(i.cJSON_InsertItemInArray) refers to cjson.o(i.add_item_to_array) for add_item_to_array
    cjson.o(i.cJSON_Minify) refers to cjson.o(i.skip_oneline_comment) for skip_oneline_comment
    cjson.o(i.cJSON_Minify) refers to cjson.o(i.skip_multiline_comment) for skip_multiline_comment
    cjson.o(i.cJSON_Minify) refers to cjson.o(i.minify_string) for minify_string
    cjson.o(i.cJSON_New_Item) refers to memseta.o(.text) for __aeabi_memclr4
    cjson.o(i.cJSON_Parse) refers to cjson.o(i.cJSON_ParseWithOpts) for cJSON_ParseWithOpts
    cjson.o(i.cJSON_ParseWithLength) refers to cjson.o(i.cJSON_ParseWithLengthOpts) for cJSON_ParseWithLengthOpts
    cjson.o(i.cJSON_ParseWithLengthOpts) refers to memseta.o(.text) for __aeabi_memclr4
    cjson.o(i.cJSON_ParseWithLengthOpts) refers to cjson.o(i.cJSON_New_Item) for cJSON_New_Item
    cjson.o(i.cJSON_ParseWithLengthOpts) refers to cjson.o(i.skip_utf8_bom) for skip_utf8_bom
    cjson.o(i.cJSON_ParseWithLengthOpts) refers to cjson.o(i.buffer_skip_whitespace) for buffer_skip_whitespace
    cjson.o(i.cJSON_ParseWithLengthOpts) refers to cjson.o(i.parse_value) for parse_value
    cjson.o(i.cJSON_ParseWithLengthOpts) refers to cjson.o(i.cJSON_Delete) for cJSON_Delete
    cjson.o(i.cJSON_ParseWithLengthOpts) refers to cjson.o(.data) for global_error
    cjson.o(i.cJSON_ParseWithOpts) refers to strlen.o(.text) for strlen
    cjson.o(i.cJSON_ParseWithOpts) refers to cjson.o(i.cJSON_ParseWithLengthOpts) for cJSON_ParseWithLengthOpts
    cjson.o(i.cJSON_Print) refers to cjson.o(i.print) for print
    cjson.o(i.cJSON_Print) refers to cjson.o(.data) for global_hooks
    cjson.o(i.cJSON_PrintBuffered) refers to memseta.o(.text) for __aeabi_memclr4
    cjson.o(i.cJSON_PrintBuffered) refers to cjson.o(i.print_value) for print_value
    cjson.o(i.cJSON_PrintBuffered) refers to cjson.o(.data) for global_hooks
    cjson.o(i.cJSON_PrintPreallocated) refers to memseta.o(.text) for __aeabi_memclr4
    cjson.o(i.cJSON_PrintPreallocated) refers to cjson.o(i.print_value) for print_value
    cjson.o(i.cJSON_PrintPreallocated) refers to cjson.o(.data) for global_hooks
    cjson.o(i.cJSON_PrintUnformatted) refers to cjson.o(i.print) for print
    cjson.o(i.cJSON_PrintUnformatted) refers to cjson.o(.data) for global_hooks
    cjson.o(i.cJSON_ReplaceItemInArray) refers to cjson.o(i.get_array_item) for get_array_item
    cjson.o(i.cJSON_ReplaceItemInArray) refers to cjson.o(i.cJSON_ReplaceItemViaPointer) for cJSON_ReplaceItemViaPointer
    cjson.o(i.cJSON_ReplaceItemInObject) refers to cjson.o(i.replace_item_in_object) for replace_item_in_object
    cjson.o(i.cJSON_ReplaceItemInObjectCaseSensitive) refers to cjson.o(i.replace_item_in_object) for replace_item_in_object
    cjson.o(i.cJSON_ReplaceItemViaPointer) refers to cjson.o(i.cJSON_Delete) for cJSON_Delete
    cjson.o(i.cJSON_SetNumberHelper) refers to cdrcmple.o(.text) for __aeabi_cdrcmple
    cjson.o(i.cJSON_SetNumberHelper) refers to cdcmple.o(.text) for __aeabi_cdcmple
    cjson.o(i.cJSON_SetNumberHelper) refers to dfixi.o(.text) for __aeabi_d2iz
    cjson.o(i.cJSON_SetValuestring) refers to strlen.o(.text) for strlen
    cjson.o(i.cJSON_SetValuestring) refers to strcpy.o(.text) for strcpy
    cjson.o(i.cJSON_SetValuestring) refers to cjson.o(i.cJSON_strdup) for cJSON_strdup
    cjson.o(i.cJSON_SetValuestring) refers to cjson.o(i.cJSON_free) for cJSON_free
    cjson.o(i.cJSON_SetValuestring) refers to cjson.o(.data) for global_hooks
    cjson.o(i.cJSON_Version) refers to printfa.o(i.__0sprintf) for __2sprintf
    cjson.o(i.cJSON_Version) refers to cjson.o(.bss) for version
    cjson.o(i.cJSON_free) refers to cjson.o(.data) for global_hooks
    cjson.o(i.cJSON_malloc) refers to cjson.o(.data) for global_hooks
    cjson.o(i.cJSON_strdup) refers to strlen.o(.text) for strlen
    cjson.o(i.cJSON_strdup) refers to memcpya.o(.text) for __aeabi_memcpy
    cjson.o(i.case_insensitive_strcmp) refers to tolower.o(.text) for tolower
    cjson.o(i.compare_double) refers to cdrcmple.o(.text) for __aeabi_cdrcmple
    cjson.o(i.compare_double) refers to dmul.o(.text) for __aeabi_dmul
    cjson.o(i.compare_double) refers to dadd.o(.text) for __aeabi_dsub
    cjson.o(i.compare_double) refers to cdcmple.o(.text) for __aeabi_cdcmple
    cjson.o(i.create_reference) refers to cjson.o(i.cJSON_New_Item) for cJSON_New_Item
    cjson.o(i.create_reference) refers to memcpya.o(.text) for __aeabi_memcpy4
    cjson.o(i.ensure) refers to memcpya.o(.text) for __aeabi_memcpy
    cjson.o(i.get_object_item) refers to strcmp.o(.text) for strcmp
    cjson.o(i.get_object_item) refers to cjson.o(i.case_insensitive_strcmp) for case_insensitive_strcmp
    cjson.o(i.parse_array) refers to cjson.o(i.buffer_skip_whitespace) for buffer_skip_whitespace
    cjson.o(i.parse_array) refers to cjson.o(i.cJSON_New_Item) for cJSON_New_Item
    cjson.o(i.parse_array) refers to cjson.o(i.parse_value) for parse_value
    cjson.o(i.parse_array) refers to cjson.o(i.cJSON_Delete) for cJSON_Delete
    cjson.o(i.parse_number) refers to cjson.o(i.get_decimal_point) for get_decimal_point
    cjson.o(i.parse_number) refers to strtod.o(i.strtod) for strtod
    cjson.o(i.parse_number) refers to cdrcmple.o(.text) for __aeabi_cdrcmple
    cjson.o(i.parse_number) refers to cdcmple.o(.text) for __aeabi_cdcmple
    cjson.o(i.parse_number) refers to dfixi.o(.text) for __aeabi_d2iz
    cjson.o(i.parse_object) refers to cjson.o(i.buffer_skip_whitespace) for buffer_skip_whitespace
    cjson.o(i.parse_object) refers to cjson.o(i.cJSON_New_Item) for cJSON_New_Item
    cjson.o(i.parse_object) refers to cjson.o(i.parse_string) for parse_string
    cjson.o(i.parse_object) refers to cjson.o(i.parse_value) for parse_value
    cjson.o(i.parse_object) refers to cjson.o(i.cJSON_Delete) for cJSON_Delete
    cjson.o(i.parse_string) refers to cjson.o(i.utf16_literal_to_utf8) for utf16_literal_to_utf8
    cjson.o(i.parse_value) refers to strncmp.o(.text) for strncmp
    cjson.o(i.parse_value) refers to cjson.o(i.parse_string) for parse_string
    cjson.o(i.parse_value) refers to cjson.o(i.parse_number) for parse_number
    cjson.o(i.parse_value) refers to cjson.o(i.parse_array) for parse_array
    cjson.o(i.parse_value) refers to cjson.o(i.parse_object) for parse_object
    cjson.o(i.print) refers to memseta.o(.text) for __aeabi_memclr4
    cjson.o(i.print) refers to cjson.o(i.print_value) for print_value
    cjson.o(i.print) refers to cjson.o(i.update_offset) for update_offset
    cjson.o(i.print) refers to memcpya.o(.text) for __aeabi_memcpy
    cjson.o(i.print_array) refers to cjson.o(i.ensure) for ensure
    cjson.o(i.print_array) refers to cjson.o(i.print_value) for print_value
    cjson.o(i.print_array) refers to cjson.o(i.update_offset) for update_offset
    cjson.o(i.print_number) refers to scanf_fp.o(.text) for _scanf_real
    cjson.o(i.print_number) refers to memseta.o(.text) for __aeabi_memclr4
    cjson.o(i.print_number) refers to cjson.o(i.get_decimal_point) for get_decimal_point
    cjson.o(i.print_number) refers to printfa.o(i.__0sprintf) for __2sprintf
    cjson.o(i.print_number) refers to dflti.o(.text) for __aeabi_i2d
    cjson.o(i.print_number) refers to cdcmple.o(.text) for __aeabi_cdcmpeq
    cjson.o(i.print_number) refers to __0sscanf.o(.text) for __0sscanf
    cjson.o(i.print_number) refers to cjson.o(i.compare_double) for compare_double
    cjson.o(i.print_number) refers to cjson.o(i.ensure) for ensure
    cjson.o(i.print_object) refers to cjson.o(i.ensure) for ensure
    cjson.o(i.print_object) refers to cjson.o(i.print_string_ptr) for print_string_ptr
    cjson.o(i.print_object) refers to cjson.o(i.update_offset) for update_offset
    cjson.o(i.print_object) refers to cjson.o(i.print_value) for print_value
    cjson.o(i.print_string) refers to cjson.o(i.print_string_ptr) for print_string_ptr
    cjson.o(i.print_string_ptr) refers to cjson.o(i.ensure) for ensure
    cjson.o(i.print_string_ptr) refers to strcpy.o(.text) for strcpy
    cjson.o(i.print_string_ptr) refers to memcpya.o(.text) for __aeabi_memcpy
    cjson.o(i.print_string_ptr) refers to printfa.o(i.__0sprintf) for __2sprintf
    cjson.o(i.print_value) refers to cjson.o(i.ensure) for ensure
    cjson.o(i.print_value) refers to strcpy.o(.text) for strcpy
    cjson.o(i.print_value) refers to cjson.o(i.print_number) for print_number
    cjson.o(i.print_value) refers to strlen.o(.text) for strlen
    cjson.o(i.print_value) refers to memcpya.o(.text) for __aeabi_memcpy
    cjson.o(i.print_value) refers to cjson.o(i.print_string) for print_string
    cjson.o(i.print_value) refers to cjson.o(i.print_array) for print_array
    cjson.o(i.print_value) refers to cjson.o(i.print_object) for print_object
    cjson.o(i.replace_item_in_object) refers to cjson.o(i.cJSON_free) for cJSON_free
    cjson.o(i.replace_item_in_object) refers to cjson.o(i.cJSON_strdup) for cJSON_strdup
    cjson.o(i.replace_item_in_object) refers to cjson.o(i.get_object_item) for get_object_item
    cjson.o(i.replace_item_in_object) refers to cjson.o(i.cJSON_ReplaceItemViaPointer) for cJSON_ReplaceItemViaPointer
    cjson.o(i.replace_item_in_object) refers to cjson.o(.data) for global_hooks
    cjson.o(i.skip_utf8_bom) refers to strncmp.o(.text) for strncmp
    cjson.o(i.update_offset) refers to strlen.o(.text) for strlen
    cjson.o(i.utf16_literal_to_utf8) refers to cjson.o(i.parse_hex4) for parse_hex4
    cjson.o(.data) refers to mallocr.o(i.__malloc$realloc) for malloc
    cjson.o(.data) refers to mallocr.o(i.__free$realloc) for free
    cjson.o(.data) refers to mallocr.o(i.realloc) for realloc
    usart3.o(i.ESP8266_Clear) refers to memseta.o(.text) for __aeabi_memclr
    usart3.o(i.ESP8266_Clear) refers to usart3.o(.bss) for esp8266_buf
    usart3.o(i.ESP8266_Clear) refers to usart3.o(.data) for esp8266_cnt
    usart3.o(i.ESP8266_GetIPD) refers to usart3.o(i.ESP8266_WaitRecive) for ESP8266_WaitRecive
    usart3.o(i.ESP8266_GetIPD) refers to strstr.o(.text) for strstr
    usart3.o(i.ESP8266_GetIPD) refers to strchr.o(.text) for strchr
    usart3.o(i.ESP8266_GetIPD) refers to delay.o(i.delay_ms) for delay_ms
    usart3.o(i.ESP8266_GetIPD) refers to usart3.o(.bss) for esp8266_buf
    usart3.o(i.ESP8266_Init) refers to delay.o(i.delay_ms) for delay_ms
    usart3.o(i.ESP8266_Init) refers to usart3.o(i.ESP8266_Clear) for ESP8266_Clear
    usart3.o(i.ESP8266_Init) refers to printfa.o(i.__0printf) for __2printf
    usart3.o(i.ESP8266_Init) refers to usart3.o(i.ESP8266_SendCmd) for ESP8266_SendCmd
    usart3.o(i.ESP8266_Init) refers to memseta.o(.text) for __aeabi_memclr4
    usart3.o(i.ESP8266_Init) refers to printfa.o(i.__0sprintf) for __2sprintf
    usart3.o(i.ESP8266_SendCmd) refers to strlen.o(.text) for strlen
    usart3.o(i.ESP8266_SendCmd) refers to usart3.o(i.Usart3_SendString) for Usart3_SendString
    usart3.o(i.ESP8266_SendCmd) refers to usart3.o(i.ESP8266_WaitRecive) for ESP8266_WaitRecive
    usart3.o(i.ESP8266_SendCmd) refers to strstr.o(.text) for strstr
    usart3.o(i.ESP8266_SendCmd) refers to usart3.o(i.ESP8266_Clear) for ESP8266_Clear
    usart3.o(i.ESP8266_SendCmd) refers to delay.o(i.delay_ms) for delay_ms
    usart3.o(i.ESP8266_SendCmd) refers to usart3.o(.bss) for esp8266_buf
    usart3.o(i.ESP8266_SendData) refers to usart3.o(i.ESP8266_Clear) for ESP8266_Clear
    usart3.o(i.ESP8266_SendData) refers to printfa.o(i.__0sprintf) for __2sprintf
    usart3.o(i.ESP8266_SendData) refers to usart3.o(i.ESP8266_SendCmd) for ESP8266_SendCmd
    usart3.o(i.ESP8266_SendData) refers to usart3.o(i.Usart3_SendString) for Usart3_SendString
    usart3.o(i.ESP8266_WaitRecive) refers to usart3.o(.data) for esp8266_cnt
    usart3.o(i.USART3_IRQHandler) refers to stm32f10x_usart.o(i.USART_GetITStatus) for USART_GetITStatus
    usart3.o(i.USART3_IRQHandler) refers to stm32f10x_usart.o(i.USART_ClearFlag) for USART_ClearFlag
    usart3.o(i.USART3_IRQHandler) refers to usart3.o(.data) for esp8266_cnt
    usart3.o(i.USART3_IRQHandler) refers to usart3.o(.bss) for esp8266_buf
    usart3.o(i.Usart3_Init) refers to stm32f10x_rcc.o(i.RCC_APB2PeriphClockCmd) for RCC_APB2PeriphClockCmd
    usart3.o(i.Usart3_Init) refers to stm32f10x_rcc.o(i.RCC_APB1PeriphClockCmd) for RCC_APB1PeriphClockCmd
    usart3.o(i.Usart3_Init) refers to stm32f10x_gpio.o(i.GPIO_Init) for GPIO_Init
    usart3.o(i.Usart3_Init) refers to stm32f10x_usart.o(i.USART_Init) for USART_Init
    usart3.o(i.Usart3_Init) refers to stm32f10x_usart.o(i.USART_Cmd) for USART_Cmd
    usart3.o(i.Usart3_Init) refers to stm32f10x_usart.o(i.USART_ITConfig) for USART_ITConfig
    usart3.o(i.Usart3_Init) refers to misc.o(i.NVIC_Init) for NVIC_Init
    usart3.o(i.Usart3_SendString) refers to stm32f10x_usart.o(i.USART_SendData) for USART_SendData
    usart3.o(i.Usart3_SendString) refers to stm32f10x_usart.o(i.USART_GetFlagStatus) for USART_GetFlagStatus
    ga10.o(i.FillBuf) refers to memseta.o(.text) for __aeabi_memclr4
    ga10.o(i.FillBuf) refers to printfa.o(i.__0sprintf) for __2sprintf
    ga10.o(i.FillBuf) refers to strcat.o(.text) for strcat
    ga10.o(i.FillBuf) refers to strlen.o(.text) for strlen
    ga10.o(i.FillBuf) refers to git.o(.bss) for device_state_init
    ga10.o(i.GA10_Init) refers to delay.o(i.delay_ms) for delay_ms
    ga10.o(i.GA10_Init) refers to usart3.o(i.ESP8266_Clear) for ESP8266_Clear
    ga10.o(i.GA10_Init) refers to printfa.o(i.__0printf) for __2printf
    ga10.o(i.GA10_Init) refers to ga10.o(i.GA10_SendCmd) for GA10_SendCmd
    ga10.o(i.GA10_Init) refers to memseta.o(.text) for __aeabi_memclr4
    ga10.o(i.GA10_Init) refers to printfa.o(i.__0sprintf) for __2sprintf
    ga10.o(i.GA10_SendCmd) refers to printfa.o(i.__0sprintf) for __2sprintf
    ga10.o(i.GA10_SendCmd) refers to strlen.o(.text) for strlen
    ga10.o(i.GA10_SendCmd) refers to usart3.o(i.Usart3_SendString) for Usart3_SendString
    ga10.o(i.GA10_SendCmd) refers to usart3.o(i.ESP8266_WaitRecive) for ESP8266_WaitRecive
    ga10.o(i.GA10_SendCmd) refers to printfa.o(i.__0printf) for __2printf
    ga10.o(i.GA10_SendCmd) refers to strstr.o(.text) for strstr
    ga10.o(i.GA10_SendCmd) refers to usart3.o(i.ESP8266_Clear) for ESP8266_Clear
    ga10.o(i.GA10_SendCmd) refers to delay.o(i.delay_ms) for delay_ms
    ga10.o(i.GA10_SendCmd) refers to usart3.o(.bss) for esp8266_buf
    ga10.o(i.GA10_SendData) refers to usart3.o(i.ESP8266_Clear) for ESP8266_Clear
    ga10.o(i.GA10_SendData) refers to usart3.o(i.Usart3_SendString) for Usart3_SendString
    ga10.o(i.Mqtt_Pub) refers to memseta.o(.text) for __aeabi_memclr4
    ga10.o(i.Mqtt_Pub) refers to ga10.o(i.FillBuf) for FillBuf
    ga10.o(i.Mqtt_Pub) refers to printfa.o(i.__0sprintf) for __2sprintf
    ga10.o(i.Mqtt_Pub) refers to delay.o(i.delay_ms) for delay_ms
    ga10.o(i.Mqtt_Pub) refers to ga10.o(i.GA10_SendCmd) for GA10_SendCmd
    ga10.o(i.massage_ga10_json) refers to cjson.o(i.cJSON_Parse) for cJSON_Parse
    ga10.o(i.massage_ga10_json) refers to printfa.o(i.__0printf) for __2printf
    ga10.o(i.massage_ga10_json) refers to cjson.o(i.cJSON_GetObjectItem) for cJSON_GetObjectItem
    ga10.o(i.massage_ga10_json) refers to flash.o(i.W_Test) for W_Test
    ga10.o(i.massage_ga10_json) refers to cjson.o(i.cJSON_Delete) for cJSON_Delete
    ga10.o(i.massage_ga10_json) refers to git.o(.bss) for device_state_init
    git.o(i.Automation_Close) refers to stm32f10x_gpio.o(i.GPIO_ReadInputDataBit) for GPIO_ReadInputDataBit
    git.o(i.Automation_Close) refers to jr6001.o(i.JR6001_SongControl) for JR6001_SongControl
    git.o(i.Automation_Close) refers to git.o(.bss) for device_state_init
    git.o(i.Check_Key_ON_OFF) refers to key.o(i.KEY_Scan) for KEY_Scan
    git.o(i.Check_Key_ON_OFF) refers to printfa.o(i.__0printf) for __2printf
    git.o(i.Check_Key_ON_OFF) refers to git.o(.data) for num_on
    git.o(i.Check_Key_ON_OFF) refers to git.o(.bss) for device_state_init
    git.o(i.Reset_Threshole_Value) refers to flash.o(i.R_Test) for R_Test
    git.o(i.Update_device_massage) refers to hmc5883l.o(i.HMC5883_Get_Angle) for HMC5883_Get_Angle
    git.o(i.Update_device_massage) refers to ga10.o(i.Mqtt_Pub) for Mqtt_Pub
    git.o(i.Update_device_massage) refers to hmc5883l.o(.bss) for hmc_xyz_init
    git.o(i.Update_device_massage) refers to git.o(.bss) for device_state_init
    git.o(i.Update_oled_massage) refers to printfa.o(i.__0sprintf) for __2sprintf
    git.o(i.Update_oled_massage) refers to oled.o(i.OLED_ShowCH) for OLED_ShowCH
    git.o(i.Update_oled_massage) refers to git.o(.bss) for Data_init
    task.o(i.timer_init) refers to task.o(.data) for _timer_ticks
    task.o(i.timer_loop) refers to task.o(i.timer_stop) for timer_stop
    task.o(i.timer_loop) refers to task.o(.data) for head_handle
    task.o(i.timer_start) refers to task.o(.data) for head_handle
    task.o(i.timer_stop) refers to task.o(.data) for head_handle
    task.o(i.timer_ticks) refers to task.o(.data) for _timer_ticks
    timer.o(i.GENERAL_TIMClock_Enable) refers to stm32f10x_rcc.o(i.RCC_APB1PeriphClockCmd) for RCC_APB1PeriphClockCmd
    timer.o(i.GENERAL_TIM_Init) refers to timer.o(i.GENERAL_TIMClock_Enable) for GENERAL_TIMClock_Enable
    timer.o(i.GENERAL_TIM_Init) refers to timer.o(i.GENERAL_TIM_NVIC_Config) for GENERAL_TIM_NVIC_Config
    timer.o(i.GENERAL_TIM_Init) refers to timer.o(i.GENERAL_TIM_Mode_Config) for GENERAL_TIM_Mode_Config
    timer.o(i.GENERAL_TIM_Mode_Config) refers to timer.o(i.TimeModule_get) for TimeModule_get
    timer.o(i.GENERAL_TIM_Mode_Config) refers to stm32f10x_tim.o(i.TIM_TimeBaseInit) for TIM_TimeBaseInit
    timer.o(i.GENERAL_TIM_Mode_Config) refers to stm32f10x_tim.o(i.TIM_ClearFlag) for TIM_ClearFlag
    timer.o(i.GENERAL_TIM_Mode_Config) refers to stm32f10x_tim.o(i.TIM_ITConfig) for TIM_ITConfig
    timer.o(i.GENERAL_TIM_Mode_Config) refers to stm32f10x_tim.o(i.TIM_Cmd) for TIM_Cmd
    timer.o(i.GENERAL_TIM_NVIC_Config) refers to misc.o(i.NVIC_PriorityGroupConfig) for NVIC_PriorityGroupConfig
    timer.o(i.GENERAL_TIM_NVIC_Config) refers to misc.o(i.NVIC_Init) for NVIC_Init
    timer.o(i.TIM4_IRQHandler) refers to stm32f10x_tim.o(i.TIM_GetITStatus) for TIM_GetITStatus
    timer.o(i.TIM4_IRQHandler) refers to task.o(i.timer_ticks) for timer_ticks
    timer.o(i.TIM4_IRQHandler) refers to stm32f10x_tim.o(i.TIM_ClearITPendingBit) for TIM_ClearITPendingBit
    timer.o(i.TIM4_IRQHandler) refers to timer.o(.data) for time_4
    timer.o(i.TIM4_IRQHandler) refers to git.o(.bss) for Data_init
    timer.o(i.TIM4_IRQHandler) refers to main.o(.data) for Connect_Net
    atan2.o(i.__softfp_atan2) refers (Special) to iusefp.o(.text) for __I$use$fp
    atan2.o(i.__softfp_atan2) refers to atan2.o(i.atan2) for atan2
    atan2.o(i.atan2) refers (Special) to iusefp.o(.text) for __I$use$fp
    atan2.o(i.atan2) refers to dunder.o(i.__mathlib_dbl_infnan2) for __mathlib_dbl_infnan2
    atan2.o(i.atan2) refers to atan.o(i.atan) for atan
    atan2.o(i.atan2) refers to ddiv.o(.text) for __aeabi_ddiv
    atan2.o(i.atan2) refers to dadd.o(.text) for __aeabi_dsub
    atan2.o(i.atan2) refers to cdcmple.o(.text) for __aeabi_cdcmpeq
    atan2.o(i.atan2) refers to errno.o(i.__set_errno) for __set_errno
    atan2.o(i.atan2) refers to qnan.o(.constdata) for __mathlib_zero
    atan2_x.o(i.____softfp_atan2$lsc) refers (Special) to iusefp.o(.text) for __I$use$fp
    atan2_x.o(i.____softfp_atan2$lsc) refers to atan2_x.o(i.__atan2$lsc) for __atan2$lsc
    atan2_x.o(i.__atan2$lsc) refers (Special) to iusefp.o(.text) for __I$use$fp
    atan2_x.o(i.__atan2$lsc) refers to dunder.o(i.__mathlib_dbl_infnan2) for __mathlib_dbl_infnan2
    atan2_x.o(i.__atan2$lsc) refers to atan.o(i.atan) for atan
    atan2_x.o(i.__atan2$lsc) refers to errno.o(i.__set_errno) for __set_errno
    atan2_x.o(i.__atan2$lsc) refers to ddiv.o(.text) for __aeabi_ddiv
    atan2_x.o(i.__atan2$lsc) refers to dadd.o(.text) for __aeabi_dsub
    atan2_x.o(i.__atan2$lsc) refers to cdcmple.o(.text) for __aeabi_cdcmpeq
    atan2_x.o(i.__atan2$lsc) refers to qnan.o(.constdata) for __mathlib_zero
    strtod.o(i.__softfp_strtod) refers (Special) to iusefp.o(.text) for __I$use$fp
    strtod.o(i.__softfp_strtod) refers to strtod.o(.text) for __strtod_int
    strtod.o(i.strtod) refers (Special) to iusefp.o(.text) for __I$use$fp
    strtod.o(i.strtod) refers to strtod.o(.text) for __strtod_int
    entry.o(.ARM.Collect$$$$00000000) refers (Special) to entry10a.o(.ARM.Collect$$$$0000000F) for __rt_final_cpp
    entry.o(.ARM.Collect$$$$00000000) refers (Special) to entry11a.o(.ARM.Collect$$$$00000011) for __rt_final_exit
    entry.o(.ARM.Collect$$$$00000000) refers (Special) to entry12b.o(.ARM.Collect$$$$0000000E) for __rt_lib_shutdown_fini
    entry.o(.ARM.Collect$$$$00000000) refers (Special) to entry7b.o(.ARM.Collect$$$$00000008) for _main_clock
    entry.o(.ARM.Collect$$$$00000000) refers (Special) to entry8b.o(.ARM.Collect$$$$0000000A) for _main_cpp_init
    entry.o(.ARM.Collect$$$$00000000) refers (Special) to entry9a.o(.ARM.Collect$$$$0000000B) for _main_init
    entry.o(.ARM.Collect$$$$00000000) refers (Special) to entry5.o(.ARM.Collect$$$$00000004) for _main_scatterload
    entry.o(.ARM.Collect$$$$00000000) refers (Special) to entry2.o(.ARM.Collect$$$$00000001) for _main_stk
    printfb.o(i.__0fprintf$bare) refers to printfb.o(i._printf_core) for _printf_core
    printfb.o(i.__0fprintf$bare) refers to usart.o(i.fputc) for fputc
    printfb.o(i.__0printf$bare) refers to printfb.o(i._printf_core) for _printf_core
    printfb.o(i.__0printf$bare) refers to usart.o(i.fputc) for fputc
    printfb.o(i.__0printf$bare) refers to usart.o(.data) for __stdout
    printfb.o(i.__0snprintf$bare) refers to printfb.o(i._printf_core) for _printf_core
    printfb.o(i.__0snprintf$bare) refers to printfb.o(i._snputc) for _snputc
    printfb.o(i.__0sprintf$bare) refers to printfb.o(i._printf_core) for _printf_core
    printfb.o(i.__0sprintf$bare) refers to printfb.o(i._sputc) for _sputc
    printfb.o(i.__0vfprintf$bare) refers to printfb.o(i._printf_core) for _printf_core
    printfb.o(i.__0vfprintf$bare) refers to usart.o(i.fputc) for fputc
    printfb.o(i.__0vprintf$bare) refers to printfb.o(i._printf_core) for _printf_core
    printfb.o(i.__0vprintf$bare) refers to usart.o(i.fputc) for fputc
    printfb.o(i.__0vprintf$bare) refers to usart.o(.data) for __stdout
    printfb.o(i.__0vsnprintf$bare) refers to printfb.o(i._printf_core) for _printf_core
    printfb.o(i.__0vsnprintf$bare) refers to printfb.o(i._snputc) for _snputc
    printfb.o(i.__0vsprintf$bare) refers to printfb.o(i._printf_core) for _printf_core
    printfb.o(i.__0vsprintf$bare) refers to printfb.o(i._sputc) for _sputc
    printf0.o(i.__0fprintf$0) refers to printf0.o(i._printf_core) for _printf_core
    printf0.o(i.__0fprintf$0) refers to usart.o(i.fputc) for fputc
    printf0.o(i.__0printf$0) refers to printf0.o(i._printf_core) for _printf_core
    printf0.o(i.__0printf$0) refers to usart.o(i.fputc) for fputc
    printf0.o(i.__0printf$0) refers to usart.o(.data) for __stdout
    printf0.o(i.__0snprintf$0) refers to printf0.o(i._printf_core) for _printf_core
    printf0.o(i.__0snprintf$0) refers to printf0.o(i._snputc) for _snputc
    printf0.o(i.__0sprintf$0) refers to printf0.o(i._printf_core) for _printf_core
    printf0.o(i.__0sprintf$0) refers to printf0.o(i._sputc) for _sputc
    printf0.o(i.__0vfprintf$0) refers to printf0.o(i._printf_core) for _printf_core
    printf0.o(i.__0vfprintf$0) refers to usart.o(i.fputc) for fputc
    printf0.o(i.__0vprintf$0) refers to printf0.o(i._printf_core) for _printf_core
    printf0.o(i.__0vprintf$0) refers to usart.o(i.fputc) for fputc
    printf0.o(i.__0vprintf$0) refers to usart.o(.data) for __stdout
    printf0.o(i.__0vsnprintf$0) refers to printf0.o(i._printf_core) for _printf_core
    printf0.o(i.__0vsnprintf$0) refers to printf0.o(i._snputc) for _snputc
    printf0.o(i.__0vsprintf$0) refers to printf0.o(i._printf_core) for _printf_core
    printf0.o(i.__0vsprintf$0) refers to printf0.o(i._sputc) for _sputc
    printf1.o(i.__0fprintf$1) refers to printf1.o(i._printf_core) for _printf_core
    printf1.o(i.__0fprintf$1) refers to usart.o(i.fputc) for fputc
    printf1.o(i.__0printf$1) refers to printf1.o(i._printf_core) for _printf_core
    printf1.o(i.__0printf$1) refers to usart.o(i.fputc) for fputc
    printf1.o(i.__0printf$1) refers to usart.o(.data) for __stdout
    printf1.o(i.__0snprintf$1) refers to printf1.o(i._printf_core) for _printf_core
    printf1.o(i.__0snprintf$1) refers to printf1.o(i._snputc) for _snputc
    printf1.o(i.__0sprintf$1) refers to printf1.o(i._printf_core) for _printf_core
    printf1.o(i.__0sprintf$1) refers to printf1.o(i._sputc) for _sputc
    printf1.o(i.__0vfprintf$1) refers to printf1.o(i._printf_core) for _printf_core
    printf1.o(i.__0vfprintf$1) refers to usart.o(i.fputc) for fputc
    printf1.o(i.__0vprintf$1) refers to printf1.o(i._printf_core) for _printf_core
    printf1.o(i.__0vprintf$1) refers to usart.o(i.fputc) for fputc
    printf1.o(i.__0vprintf$1) refers to usart.o(.data) for __stdout
    printf1.o(i.__0vsnprintf$1) refers to printf1.o(i._printf_core) for _printf_core
    printf1.o(i.__0vsnprintf$1) refers to printf1.o(i._snputc) for _snputc
    printf1.o(i.__0vsprintf$1) refers to printf1.o(i._printf_core) for _printf_core
    printf1.o(i.__0vsprintf$1) refers to printf1.o(i._sputc) for _sputc
    printf1.o(i._printf_core) refers to uidiv.o(.text) for __aeabi_uidivmod
    printf2.o(i.__0fprintf$2) refers to printf2.o(i._printf_core) for _printf_core
    printf2.o(i.__0fprintf$2) refers to usart.o(i.fputc) for fputc
    printf2.o(i.__0printf$2) refers to printf2.o(i._printf_core) for _printf_core
    printf2.o(i.__0printf$2) refers to usart.o(i.fputc) for fputc
    printf2.o(i.__0printf$2) refers to usart.o(.data) for __stdout
    printf2.o(i.__0snprintf$2) refers to printf2.o(i._printf_core) for _printf_core
    printf2.o(i.__0snprintf$2) refers to printf2.o(i._snputc) for _snputc
    printf2.o(i.__0sprintf$2) refers to printf2.o(i._printf_core) for _printf_core
    printf2.o(i.__0sprintf$2) refers to printf2.o(i._sputc) for _sputc
    printf2.o(i.__0vfprintf$2) refers to printf2.o(i._printf_core) for _printf_core
    printf2.o(i.__0vfprintf$2) refers to usart.o(i.fputc) for fputc
    printf2.o(i.__0vprintf$2) refers to printf2.o(i._printf_core) for _printf_core
    printf2.o(i.__0vprintf$2) refers to usart.o(i.fputc) for fputc
    printf2.o(i.__0vprintf$2) refers to usart.o(.data) for __stdout
    printf2.o(i.__0vsnprintf$2) refers to printf2.o(i._printf_core) for _printf_core
    printf2.o(i.__0vsnprintf$2) refers to printf2.o(i._snputc) for _snputc
    printf2.o(i.__0vsprintf$2) refers to printf2.o(i._printf_core) for _printf_core
    printf2.o(i.__0vsprintf$2) refers to printf2.o(i._sputc) for _sputc
    printf3.o(i.__0fprintf$3) refers to printf3.o(i._printf_core) for _printf_core
    printf3.o(i.__0fprintf$3) refers to usart.o(i.fputc) for fputc
    printf3.o(i.__0printf$3) refers to printf3.o(i._printf_core) for _printf_core
    printf3.o(i.__0printf$3) refers to usart.o(i.fputc) for fputc
    printf3.o(i.__0printf$3) refers to usart.o(.data) for __stdout
    printf3.o(i.__0snprintf$3) refers to printf3.o(i._printf_core) for _printf_core
    printf3.o(i.__0snprintf$3) refers to printf3.o(i._snputc) for _snputc
    printf3.o(i.__0sprintf$3) refers to printf3.o(i._printf_core) for _printf_core
    printf3.o(i.__0sprintf$3) refers to printf3.o(i._sputc) for _sputc
    printf3.o(i.__0vfprintf$3) refers to printf3.o(i._printf_core) for _printf_core
    printf3.o(i.__0vfprintf$3) refers to usart.o(i.fputc) for fputc
    printf3.o(i.__0vprintf$3) refers to printf3.o(i._printf_core) for _printf_core
    printf3.o(i.__0vprintf$3) refers to usart.o(i.fputc) for fputc
    printf3.o(i.__0vprintf$3) refers to usart.o(.data) for __stdout
    printf3.o(i.__0vsnprintf$3) refers to printf3.o(i._printf_core) for _printf_core
    printf3.o(i.__0vsnprintf$3) refers to printf3.o(i._snputc) for _snputc
    printf3.o(i.__0vsprintf$3) refers to printf3.o(i._printf_core) for _printf_core
    printf3.o(i.__0vsprintf$3) refers to printf3.o(i._sputc) for _sputc
    printf3.o(i._printf_core) refers to uidiv.o(.text) for __aeabi_uidivmod
    printf4.o(i.__0fprintf$4) refers to printf4.o(i._printf_core) for _printf_core
    printf4.o(i.__0fprintf$4) refers to usart.o(i.fputc) for fputc
    printf4.o(i.__0printf$4) refers to printf4.o(i._printf_core) for _printf_core
    printf4.o(i.__0printf$4) refers to usart.o(i.fputc) for fputc
    printf4.o(i.__0printf$4) refers to usart.o(.data) for __stdout
    printf4.o(i.__0snprintf$4) refers to printf4.o(i._printf_core) for _printf_core
    printf4.o(i.__0snprintf$4) refers to printf4.o(i._snputc) for _snputc
    printf4.o(i.__0sprintf$4) refers to printf4.o(i._printf_core) for _printf_core
    printf4.o(i.__0sprintf$4) refers to printf4.o(i._sputc) for _sputc
    printf4.o(i.__0vfprintf$4) refers to printf4.o(i._printf_core) for _printf_core
    printf4.o(i.__0vfprintf$4) refers to usart.o(i.fputc) for fputc
    printf4.o(i.__0vprintf$4) refers to printf4.o(i._printf_core) for _printf_core
    printf4.o(i.__0vprintf$4) refers to usart.o(i.fputc) for fputc
    printf4.o(i.__0vprintf$4) refers to usart.o(.data) for __stdout
    printf4.o(i.__0vsnprintf$4) refers to printf4.o(i._printf_core) for _printf_core
    printf4.o(i.__0vsnprintf$4) refers to printf4.o(i._snputc) for _snputc
    printf4.o(i.__0vsprintf$4) refers to printf4.o(i._printf_core) for _printf_core
    printf4.o(i.__0vsprintf$4) refers to printf4.o(i._sputc) for _sputc
    printf4.o(i._printf_core) refers to uldiv.o(.text) for __aeabi_uldivmod
    printf5.o(i.__0fprintf$5) refers to printf5.o(i._printf_core) for _printf_core
    printf5.o(i.__0fprintf$5) refers to usart.o(i.fputc) for fputc
    printf5.o(i.__0printf$5) refers to printf5.o(i._printf_core) for _printf_core
    printf5.o(i.__0printf$5) refers to usart.o(i.fputc) for fputc
    printf5.o(i.__0printf$5) refers to usart.o(.data) for __stdout
    printf5.o(i.__0snprintf$5) refers to printf5.o(i._printf_core) for _printf_core
    printf5.o(i.__0snprintf$5) refers to printf5.o(i._snputc) for _snputc
    printf5.o(i.__0sprintf$5) refers to printf5.o(i._printf_core) for _printf_core
    printf5.o(i.__0sprintf$5) refers to printf5.o(i._sputc) for _sputc
    printf5.o(i.__0vfprintf$5) refers to printf5.o(i._printf_core) for _printf_core
    printf5.o(i.__0vfprintf$5) refers to usart.o(i.fputc) for fputc
    printf5.o(i.__0vprintf$5) refers to printf5.o(i._printf_core) for _printf_core
    printf5.o(i.__0vprintf$5) refers to usart.o(i.fputc) for fputc
    printf5.o(i.__0vprintf$5) refers to usart.o(.data) for __stdout
    printf5.o(i.__0vsnprintf$5) refers to printf5.o(i._printf_core) for _printf_core
    printf5.o(i.__0vsnprintf$5) refers to printf5.o(i._snputc) for _snputc
    printf5.o(i.__0vsprintf$5) refers to printf5.o(i._printf_core) for _printf_core
    printf5.o(i.__0vsprintf$5) refers to printf5.o(i._sputc) for _sputc
    printf5.o(i._printf_core) refers to uldiv.o(.text) for __aeabi_uldivmod
    printf6.o(i.__0fprintf$6) refers to printf6.o(i._printf_core) for _printf_core
    printf6.o(i.__0fprintf$6) refers to usart.o(i.fputc) for fputc
    printf6.o(i.__0printf$6) refers to printf6.o(i._printf_core) for _printf_core
    printf6.o(i.__0printf$6) refers to usart.o(i.fputc) for fputc
    printf6.o(i.__0printf$6) refers to usart.o(.data) for __stdout
    printf6.o(i.__0snprintf$6) refers to printf6.o(i._printf_core) for _printf_core
    printf6.o(i.__0snprintf$6) refers to printf6.o(i._snputc) for _snputc
    printf6.o(i.__0sprintf$6) refers to printf6.o(i._printf_core) for _printf_core
    printf6.o(i.__0sprintf$6) refers to printf6.o(i._sputc) for _sputc
    printf6.o(i.__0vfprintf$6) refers to printf6.o(i._printf_core) for _printf_core
    printf6.o(i.__0vfprintf$6) refers to usart.o(i.fputc) for fputc
    printf6.o(i.__0vprintf$6) refers to printf6.o(i._printf_core) for _printf_core
    printf6.o(i.__0vprintf$6) refers to usart.o(i.fputc) for fputc
    printf6.o(i.__0vprintf$6) refers to usart.o(.data) for __stdout
    printf6.o(i.__0vsnprintf$6) refers to printf6.o(i._printf_core) for _printf_core
    printf6.o(i.__0vsnprintf$6) refers to printf6.o(i._snputc) for _snputc
    printf6.o(i.__0vsprintf$6) refers to printf6.o(i._printf_core) for _printf_core
    printf6.o(i.__0vsprintf$6) refers to printf6.o(i._sputc) for _sputc
    printf6.o(i._printf_core) refers to printf6.o(i._printf_pre_padding) for _printf_pre_padding
    printf6.o(i._printf_core) refers to uidiv.o(.text) for __aeabi_uidivmod
    printf6.o(i._printf_core) refers to printf6.o(i._printf_post_padding) for _printf_post_padding
    printf7.o(i.__0fprintf$7) refers to printf7.o(i._printf_core) for _printf_core
    printf7.o(i.__0fprintf$7) refers to usart.o(i.fputc) for fputc
    printf7.o(i.__0printf$7) refers to printf7.o(i._printf_core) for _printf_core
    printf7.o(i.__0printf$7) refers to usart.o(i.fputc) for fputc
    printf7.o(i.__0printf$7) refers to usart.o(.data) for __stdout
    printf7.o(i.__0snprintf$7) refers to printf7.o(i._printf_core) for _printf_core
    printf7.o(i.__0snprintf$7) refers to printf7.o(i._snputc) for _snputc
    printf7.o(i.__0sprintf$7) refers to printf7.o(i._printf_core) for _printf_core
    printf7.o(i.__0sprintf$7) refers to printf7.o(i._sputc) for _sputc
    printf7.o(i.__0vfprintf$7) refers to printf7.o(i._printf_core) for _printf_core
    printf7.o(i.__0vfprintf$7) refers to usart.o(i.fputc) for fputc
    printf7.o(i.__0vprintf$7) refers to printf7.o(i._printf_core) for _printf_core
    printf7.o(i.__0vprintf$7) refers to usart.o(i.fputc) for fputc
    printf7.o(i.__0vprintf$7) refers to usart.o(.data) for __stdout
    printf7.o(i.__0vsnprintf$7) refers to printf7.o(i._printf_core) for _printf_core
    printf7.o(i.__0vsnprintf$7) refers to printf7.o(i._snputc) for _snputc
    printf7.o(i.__0vsprintf$7) refers to printf7.o(i._printf_core) for _printf_core
    printf7.o(i.__0vsprintf$7) refers to printf7.o(i._sputc) for _sputc
    printf7.o(i._printf_core) refers to printf7.o(i._printf_pre_padding) for _printf_pre_padding
    printf7.o(i._printf_core) refers to uldiv.o(.text) for __aeabi_uldivmod
    printf7.o(i._printf_core) refers to printf7.o(i._printf_post_padding) for _printf_post_padding
    printf8.o(i.__0fprintf$8) refers to printf8.o(i._printf_core) for _printf_core
    printf8.o(i.__0fprintf$8) refers to usart.o(i.fputc) for fputc
    printf8.o(i.__0printf$8) refers to printf8.o(i._printf_core) for _printf_core
    printf8.o(i.__0printf$8) refers to usart.o(i.fputc) for fputc
    printf8.o(i.__0printf$8) refers to usart.o(.data) for __stdout
    printf8.o(i.__0snprintf$8) refers to printf8.o(i._printf_core) for _printf_core
    printf8.o(i.__0snprintf$8) refers to printf8.o(i._snputc) for _snputc
    printf8.o(i.__0sprintf$8) refers to printf8.o(i._printf_core) for _printf_core
    printf8.o(i.__0sprintf$8) refers to printf8.o(i._sputc) for _sputc
    printf8.o(i.__0vfprintf$8) refers to printf8.o(i._printf_core) for _printf_core
    printf8.o(i.__0vfprintf$8) refers to usart.o(i.fputc) for fputc
    printf8.o(i.__0vprintf$8) refers to printf8.o(i._printf_core) for _printf_core
    printf8.o(i.__0vprintf$8) refers to usart.o(i.fputc) for fputc
    printf8.o(i.__0vprintf$8) refers to usart.o(.data) for __stdout
    printf8.o(i.__0vsnprintf$8) refers to printf8.o(i._printf_core) for _printf_core
    printf8.o(i.__0vsnprintf$8) refers to printf8.o(i._snputc) for _snputc
    printf8.o(i.__0vsprintf$8) refers to printf8.o(i._printf_core) for _printf_core
    printf8.o(i.__0vsprintf$8) refers to printf8.o(i._sputc) for _sputc
    printf8.o(i._printf_core) refers to printf8.o(i._printf_pre_padding) for _printf_pre_padding
    printf8.o(i._printf_core) refers to uldiv.o(.text) for __aeabi_uldivmod
    printf8.o(i._printf_core) refers to printf8.o(i._printf_post_padding) for _printf_post_padding
    printfa.o(i.__0fprintf) refers (Special) to iusefp.o(.text) for __I$use$fp
    printfa.o(i.__0fprintf) refers to printfa.o(i._printf_core) for _printf_core
    printfa.o(i.__0fprintf) refers to usart.o(i.fputc) for fputc
    printfa.o(i.__0printf) refers (Special) to iusefp.o(.text) for __I$use$fp
    printfa.o(i.__0printf) refers to printfa.o(i._printf_core) for _printf_core
    printfa.o(i.__0printf) refers to usart.o(i.fputc) for fputc
    printfa.o(i.__0printf) refers to usart.o(.data) for __stdout
    printfa.o(i.__0snprintf) refers (Special) to iusefp.o(.text) for __I$use$fp
    printfa.o(i.__0snprintf) refers to printfa.o(i._printf_core) for _printf_core
    printfa.o(i.__0snprintf) refers to printfa.o(i._snputc) for _snputc
    printfa.o(i.__0sprintf) refers (Special) to iusefp.o(.text) for __I$use$fp
    printfa.o(i.__0sprintf) refers to printfa.o(i._printf_core) for _printf_core
    printfa.o(i.__0sprintf) refers to printfa.o(i._sputc) for _sputc
    printfa.o(i.__0vfprintf) refers (Special) to iusefp.o(.text) for __I$use$fp
    printfa.o(i.__0vfprintf) refers to printfa.o(i._printf_core) for _printf_core
    printfa.o(i.__0vfprintf) refers to usart.o(i.fputc) for fputc
    printfa.o(i.__0vprintf) refers (Special) to iusefp.o(.text) for __I$use$fp
    printfa.o(i.__0vprintf) refers to printfa.o(i._printf_core) for _printf_core
    printfa.o(i.__0vprintf) refers to usart.o(i.fputc) for fputc
    printfa.o(i.__0vprintf) refers to usart.o(.data) for __stdout
    printfa.o(i.__0vsnprintf) refers (Special) to iusefp.o(.text) for __I$use$fp
    printfa.o(i.__0vsnprintf) refers to printfa.o(i._printf_core) for _printf_core
    printfa.o(i.__0vsnprintf) refers to printfa.o(i._snputc) for _snputc
    printfa.o(i.__0vsprintf) refers (Special) to iusefp.o(.text) for __I$use$fp
    printfa.o(i.__0vsprintf) refers to printfa.o(i._printf_core) for _printf_core
    printfa.o(i.__0vsprintf) refers to printfa.o(i._sputc) for _sputc
    printfa.o(i._fp_digits) refers (Special) to iusefp.o(.text) for __I$use$fp
    printfa.o(i._fp_digits) refers to dmul.o(.text) for __aeabi_dmul
    printfa.o(i._fp_digits) refers to ddiv.o(.text) for __aeabi_ddiv
    printfa.o(i._fp_digits) refers to cdrcmple.o(.text) for __aeabi_cdrcmple
    printfa.o(i._fp_digits) refers to dadd.o(.text) for __aeabi_dadd
    printfa.o(i._fp_digits) refers to dfixul.o(.text) for __aeabi_d2ulz
    printfa.o(i._fp_digits) refers to uldiv.o(.text) for __aeabi_uldivmod
    printfa.o(i._printf_core) refers (Special) to iusefp.o(.text) for __I$use$fp
    printfa.o(i._printf_core) refers to printfa.o(i._printf_pre_padding) for _printf_pre_padding
    printfa.o(i._printf_core) refers to uldiv.o(.text) for __aeabi_uldivmod
    printfa.o(i._printf_core) refers to printfa.o(i._printf_post_padding) for _printf_post_padding
    printfa.o(i._printf_core) refers to printfa.o(i._fp_digits) for _fp_digits
    printfa.o(i._printf_core) refers to uidiv.o(.text) for __aeabi_uidivmod
    printfa.o(i._printf_post_padding) refers (Special) to iusefp.o(.text) for __I$use$fp
    printfa.o(i._printf_pre_padding) refers (Special) to iusefp.o(.text) for __I$use$fp
    printfa.o(i._snputc) refers (Special) to iusefp.o(.text) for __I$use$fp
    printfa.o(i._sputc) refers (Special) to iusefp.o(.text) for __I$use$fp
    malloc.o(i.free) refers to mvars.o(.data) for __microlib_freelist
    malloc.o(i.malloc) refers to mvars.o(.data) for __microlib_freelist_initialised
    malloc.o(i.malloc) refers to mvars.o(.data) for __microlib_freelist
    malloc.o(i.malloc) refers to startup_stm32f10x_hd.o(HEAP) for __heap_base
    mallocr.o(i.__free$realloc) refers to mvars.o(.data) for __microlib_freelist
    mallocr.o(i.__malloc$realloc) refers to mallocr.o(i.internal_alloc) for internal_alloc
    mallocr.o(i.__malloc$realloc) refers to mvars.o(.data) for __microlib_freelist_initialised
    mallocr.o(i.__malloc$realloc) refers to startup_stm32f10x_hd.o(HEAP) for __heap_base
    mallocr.o(i.__malloc$realloc) refers to mvars.o(.data) for __microlib_freelist
    mallocr.o(i.internal_alloc) refers to memcpya.o(.text) for __aeabi_memcpy
    mallocr.o(i.internal_alloc) refers to mvars.o(.data) for __microlib_freelist
    mallocr.o(i.realloc) refers to mallocr.o(i.__free$realloc) for free
    mallocr.o(i.realloc) refers to mallocr.o(i.internal_alloc) for internal_alloc
    mallocr.o(i.realloc) refers to mallocr.o(i.__malloc$realloc) for malloc
    mallocr.o(i.realloc) refers to mvars.o(.data) for __microlib_freelist
    malloca.o(i.__aligned_malloc) refers to mvars.o(.data) for __microlib_freelist_initialised
    malloca.o(i.__aligned_malloc) refers to mvars.o(.data) for __microlib_freelist
    malloca.o(i.__aligned_malloc) refers to startup_stm32f10x_hd.o(HEAP) for __heap_base
    malloca.o(i.__free$memalign) refers to mvars.o(.data) for __microlib_freelist
    malloca.o(i.__malloc$memalign) refers to malloca.o(i.__aligned_malloc) for __aligned_malloc
    mallocra.o(i.__aligned_malloc$realloc) refers to mallocra.o(i.internal_alloc) for internal_alloc
    mallocra.o(i.__aligned_malloc$realloc) refers to mvars.o(.data) for __microlib_freelist_initialised
    mallocra.o(i.__aligned_malloc$realloc) refers to startup_stm32f10x_hd.o(HEAP) for __heap_base
    mallocra.o(i.__aligned_malloc$realloc) refers to mvars.o(.data) for __microlib_freelist
    mallocra.o(i.__free$realloc$memalign) refers to mvars.o(.data) for __microlib_freelist
    mallocra.o(i.__malloc$realloc$memalign) refers to mallocra.o(i.__aligned_malloc$realloc) for __aligned_malloc$realloc
    mallocra.o(i.__realloc$memalign) refers to mallocra.o(i.__free$realloc$memalign) for __free$realloc$memalign
    mallocra.o(i.__realloc$memalign) refers to mallocra.o(i.internal_alloc) for internal_alloc
    mallocra.o(i.__realloc$memalign) refers to mallocra.o(i.__malloc$realloc$memalign) for __malloc$realloc$memalign
    mallocra.o(i.__realloc$memalign) refers to mvars.o(.data) for __microlib_freelist
    mallocra.o(i.internal_alloc) refers to memcpya.o(.text) for __aeabi_memcpy
    mallocra.o(i.internal_alloc) refers to mvars.o(.data) for __microlib_freelist
    __0sscanf.o(.text) refers to scanf_char.o(.text) for __vfscanf_char
    __0sscanf.o(.text) refers to _sgetc.o(.text) for _sgetc
    scanf_fp.o(.text) refers (Special) to iusefp.o(.text) for __I$use$fp
    scanf_fp.o(.text) refers to dfltul.o(.text) for __aeabi_ul2d
    scanf_fp.o(.text) refers to dmul.o(.text) for __aeabi_dmul
    scanf_fp.o(.text) refers to ddiv.o(.text) for __aeabi_ddiv
    scanf_fp.o(.text) refers to scanf_fp.o(i._is_digit) for _is_digit
    scanf_fp.o(.text) refers to d2f.o(.text) for __aeabi_d2f
    dadd.o(.text) refers (Special) to iusefp.o(.text) for __I$use$fp
    dadd.o(.text) refers to llshl.o(.text) for __aeabi_llsl
    dadd.o(.text) refers to llsshr.o(.text) for __aeabi_lasr
    dadd.o(.text) refers to depilogue.o(.text) for _double_epilogue
    dmul.o(.text) refers (Special) to iusefp.o(.text) for __I$use$fp
    dmul.o(.text) refers to depilogue.o(.text) for _double_epilogue
    dflti.o(.text) refers (Special) to iusefp.o(.text) for __I$use$fp
    dflti.o(.text) refers to depilogue.o(.text) for _double_epilogue
    dfixi.o(.text) refers (Special) to iusefp.o(.text) for __I$use$fp
    dfixi.o(.text) refers to llushr.o(.text) for __aeabi_llsr
    f2d.o(.text) refers (Special) to iusefp.o(.text) for __I$use$fp
    cdcmple.o(.text) refers (Special) to iusefp.o(.text) for __I$use$fp
    cdrcmple.o(.text) refers (Special) to iusefp.o(.text) for __I$use$fp
    d2f.o(.text) refers (Special) to iusefp.o(.text) for __I$use$fp
    d2f.o(.text) refers to fepilogue.o(.text) for _float_round
    atan.o(i.__softfp_atan) refers (Special) to iusefp.o(.text) for __I$use$fp
    atan.o(i.__softfp_atan) refers to atan.o(i.atan) for atan
    atan.o(i.atan) refers (Special) to iusefp.o(.text) for __I$use$fp
    atan.o(i.atan) refers to dunder.o(i.__mathlib_dbl_infnan) for __mathlib_dbl_infnan
    atan.o(i.atan) refers to fpclassify.o(i.__ARM_fpclassify) for __ARM_fpclassify
    atan.o(i.atan) refers to dunder.o(i.__mathlib_dbl_underflow) for __mathlib_dbl_underflow
    atan.o(i.atan) refers to dadd.o(.text) for __aeabi_dadd
    atan.o(i.atan) refers to dscalb.o(.text) for __ARM_scalbn
    atan.o(i.atan) refers to ddiv.o(.text) for __aeabi_ddiv
    atan.o(i.atan) refers to dmul.o(.text) for __aeabi_dmul
    atan.o(i.atan) refers to poly.o(i.__kernel_poly) for __kernel_poly
    atan.o(i.atan) refers to atan.o(.constdata) for .constdata
    atan.o(.constdata) refers (Special) to iusefp.o(.text) for __I$use$fp
    atan_x.o(i.____softfp_atan$lsc) refers (Special) to iusefp.o(.text) for __I$use$fp
    atan_x.o(i.____softfp_atan$lsc) refers to atan_x.o(i.__atan$lsc) for __atan$lsc
    atan_x.o(i.__atan$lsc) refers (Special) to iusefp.o(.text) for __I$use$fp
    atan_x.o(i.__atan$lsc) refers to dunder.o(i.__mathlib_dbl_infnan) for __mathlib_dbl_infnan
    atan_x.o(i.__atan$lsc) refers to dadd.o(.text) for __aeabi_dadd
    atan_x.o(i.__atan$lsc) refers to dscalb.o(.text) for __ARM_scalbn
    atan_x.o(i.__atan$lsc) refers to ddiv.o(.text) for __aeabi_ddiv
    atan_x.o(i.__atan$lsc) refers to dmul.o(.text) for __aeabi_dmul
    atan_x.o(i.__atan$lsc) refers to poly.o(i.__kernel_poly) for __kernel_poly
    atan_x.o(i.__atan$lsc) refers to atan_x.o(.constdata) for .constdata
    atan_x.o(.constdata) refers (Special) to iusefp.o(.text) for __I$use$fp
    dunder.o(i.__mathlib_dbl_divzero) refers to ddiv.o(.text) for __aeabi_ddiv
    dunder.o(i.__mathlib_dbl_infnan) refers to dscalb.o(.text) for __ARM_scalbn
    dunder.o(i.__mathlib_dbl_infnan2) refers to dadd.o(.text) for __aeabi_dadd
    dunder.o(i.__mathlib_dbl_invalid) refers to ddiv.o(.text) for __aeabi_ddiv
    dunder.o(i.__mathlib_dbl_overflow) refers to dscalb.o(.text) for __ARM_scalbn
    dunder.o(i.__mathlib_dbl_posinfnan) refers to dmul.o(.text) for __aeabi_dmul
    dunder.o(i.__mathlib_dbl_underflow) refers to dscalb.o(.text) for __ARM_scalbn
    qnan.o(.constdata) refers (Special) to iusefp.o(.text) for __I$use$fp
    entry2.o(.ARM.Collect$$$$00000001) refers to entry2.o(.ARM.Collect$$$$00002712) for __lit__00000000
    entry2.o(.ARM.Collect$$$$00002712) refers to startup_stm32f10x_hd.o(STACK) for __initial_sp
    entry2.o(__vectab_stack_and_reset_area) refers to startup_stm32f10x_hd.o(STACK) for __initial_sp
    entry2.o(__vectab_stack_and_reset_area) refers to entry.o(.ARM.Collect$$$$00000000) for __main
    entry5.o(.ARM.Collect$$$$00000004) refers to init.o(.text) for __scatterload
    entry9a.o(.ARM.Collect$$$$0000000B) refers to main.o(i.main) for main
    entry9b.o(.ARM.Collect$$$$0000000C) refers to main.o(i.main) for main
    uldiv.o(.text) refers to llushr.o(.text) for __aeabi_llsr
    uldiv.o(.text) refers to llshl.o(.text) for __aeabi_llsl
    errno.o(i.__aeabi_errno_addr) refers to errno.o(.data) for .data
    errno.o(i.__read_errno) refers to errno.o(.data) for .data
    errno.o(i.__set_errno) refers to errno.o(.data) for .data
    scanf_char.o(.text) refers to _scanf.o(.text) for __vfscanf
    scanf_char.o(.text) refers to isspace_c.o(.text) for isspace
    strtod.o(.text) refers to scanf_fp.o(.text) for _scanf_real
    strtod.o(.text) refers to _sgetc.o(.text) for _sgetc
    strtod.o(.text) refers to isspace_c.o(.text) for isspace
    depilogue.o(.text) refers to llshl.o(.text) for __aeabi_llsl
    depilogue.o(.text) refers to llushr.o(.text) for __aeabi_llsr
    ddiv.o(.text) refers to depilogue.o(.text) for _double_round
    dfltul.o(.text) refers to depilogue.o(.text) for _double_epilogue
    dfixul.o(.text) refers to llushr.o(.text) for __aeabi_llsr
    dfixul.o(.text) refers to llshl.o(.text) for __aeabi_llsl
    fpclassify.o(i.__ARM_fpclassify) refers (Special) to iusefp.o(.text) for __I$use$fp
    poly.o(i.__kernel_poly) refers (Special) to iusefp.o(.text) for __I$use$fp
    poly.o(i.__kernel_poly) refers to dmul.o(.text) for __aeabi_dmul
    poly.o(i.__kernel_poly) refers to dadd.o(.text) for __aeabi_dadd
    init.o(.text) refers to entry5.o(.ARM.Collect$$$$00000004) for __main_after_scatterload
    isspace_c.o(.text) refers to ctype_c.o(.text) for __ctype_lookup
    _scanf.o(.text) refers (Weak) to scanf_fp.o(.text) for _scanf_real
    ctype_c.o(.text) refers to ctype_c.o(.constdata) for .constdata
    scanf_fp.o(i._is_digit) refers (Special) to iusefp.o(.text) for __I$use$fp


==============================================================================

Removing Unused input sections from the image.

    Removing system_stm32f10x.o(i.SystemCoreClockUpdate), (164 bytes).
    Removing key.o(i.Key_Scan), (38 bytes).
    Removing oled.o(i.OLED_ClearPoint), (96 bytes).
    Removing oled.o(i.OLED_DisPlay_Off), (28 bytes).
    Removing oled.o(i.OLED_DisPlay_On), (28 bytes).
    Removing oled.o(i.OLED_DrawCircle), (152 bytes).
    Removing oled.o(i.OLED_DrawPoint), (60 bytes).
    Removing oled.o(i.OLED_Pow), (22 bytes).
    Removing oled.o(i.OLED_ShowChar), (112 bytes).
    Removing oled.o(i.OLED_ShowNum), (124 bytes).
    Removing oled.o(i.OLED_ShowPicture), (98 bytes).
    Removing oled.o(.bss), (1152 bytes).
    Removing flash.o(i.W_R_Test), (152 bytes).
    Removing usart2.o(i.Hand), (28 bytes).
    Removing usart2.o(i.clrStruct), (76 bytes).
    Removing jr6001.o(i.JR6001_Instruction), (40 bytes).
    Removing hmc5883l.o(i.HMC5883_Get_XYZ), (84 bytes).
    Removing delay.o(i.Sys_Restart), (48 bytes).
    Removing sys.o(.emb_text), (6 bytes).
    Removing sys.o(i.INTX_DISABLE), (4 bytes).
    Removing sys.o(i.INTX_ENABLE), (4 bytes).
    Removing sys.o(i.WFI_SET), (4 bytes).
    Removing usart.o(i.Usart_SendArray), (48 bytes).
    Removing usart.o(i.Usart_SendByte), (30 bytes).
    Removing usart.o(i.Usart_SendHalfWord), (60 bytes).
    Removing usart.o(i.Usart_SendString), (42 bytes).
    Removing usart.o(i._sys_exit), (4 bytes).
    Removing core_cm3.o(.emb_text), (32 bytes).
    Removing misc.o(i.NVIC_SetVectorTable), (20 bytes).
    Removing misc.o(i.NVIC_SystemLPConfig), (32 bytes).
    Removing stm32f10x_gpio.o(i.GPIO_AFIODeInit), (20 bytes).
    Removing stm32f10x_gpio.o(i.GPIO_DeInit), (200 bytes).
    Removing stm32f10x_gpio.o(i.GPIO_ETH_MediaInterfaceConfig), (12 bytes).
    Removing stm32f10x_gpio.o(i.GPIO_EXTILineConfig), (64 bytes).
    Removing stm32f10x_gpio.o(i.GPIO_EventOutputCmd), (12 bytes).
    Removing stm32f10x_gpio.o(i.GPIO_EventOutputConfig), (32 bytes).
    Removing stm32f10x_gpio.o(i.GPIO_PinLockConfig), (18 bytes).
    Removing stm32f10x_gpio.o(i.GPIO_ReadInputData), (8 bytes).
    Removing stm32f10x_gpio.o(i.GPIO_ReadOutputData), (8 bytes).
    Removing stm32f10x_gpio.o(i.GPIO_ReadOutputDataBit), (18 bytes).
    Removing stm32f10x_gpio.o(i.GPIO_StructInit), (16 bytes).
    Removing stm32f10x_gpio.o(i.GPIO_Write), (4 bytes).
    Removing stm32f10x_gpio.o(i.GPIO_WriteBit), (10 bytes).
    Removing stm32f10x_usart.o(i.USART_ClearITPendingBit), (30 bytes).
    Removing stm32f10x_usart.o(i.USART_ClockInit), (34 bytes).
    Removing stm32f10x_usart.o(i.USART_ClockStructInit), (12 bytes).
    Removing stm32f10x_usart.o(i.USART_DMACmd), (18 bytes).
    Removing stm32f10x_usart.o(i.USART_HalfDuplexCmd), (24 bytes).
    Removing stm32f10x_usart.o(i.USART_IrDACmd), (24 bytes).
    Removing stm32f10x_usart.o(i.USART_IrDAConfig), (18 bytes).
    Removing stm32f10x_usart.o(i.USART_LINBreakDetectLengthConfig), (18 bytes).
    Removing stm32f10x_usart.o(i.USART_LINCmd), (24 bytes).
    Removing stm32f10x_usart.o(i.USART_OneBitMethodCmd), (24 bytes).
    Removing stm32f10x_usart.o(i.USART_OverSampling8Cmd), (22 bytes).
    Removing stm32f10x_usart.o(i.USART_ReceiverWakeUpCmd), (24 bytes).
    Removing stm32f10x_usart.o(i.USART_SendBreak), (10 bytes).
    Removing stm32f10x_usart.o(i.USART_SetAddress), (18 bytes).
    Removing stm32f10x_usart.o(i.USART_SetGuardTime), (16 bytes).
    Removing stm32f10x_usart.o(i.USART_SetPrescaler), (16 bytes).
    Removing stm32f10x_usart.o(i.USART_SmartCardCmd), (24 bytes).
    Removing stm32f10x_usart.o(i.USART_SmartCardNACKCmd), (24 bytes).
    Removing stm32f10x_usart.o(i.USART_StructInit), (24 bytes).
    Removing stm32f10x_usart.o(i.USART_WakeUpConfig), (18 bytes).
    Removing stm32f10x_flash.o(i.FLASH_ClearFlag), (12 bytes).
    Removing stm32f10x_flash.o(i.FLASH_EnableWriteProtection), (196 bytes).
    Removing stm32f10x_flash.o(i.FLASH_EraseAllBank1Pages), (72 bytes).
    Removing stm32f10x_flash.o(i.FLASH_EraseAllPages), (72 bytes).
    Removing stm32f10x_flash.o(i.FLASH_EraseOptionBytes), (168 bytes).
    Removing stm32f10x_flash.o(i.FLASH_ErasePage), (76 bytes).
    Removing stm32f10x_flash.o(i.FLASH_GetBank1Status), (52 bytes).
    Removing stm32f10x_flash.o(i.FLASH_GetFlagStatus), (48 bytes).
    Removing stm32f10x_flash.o(i.FLASH_GetPrefetchBufferStatus), (24 bytes).
    Removing stm32f10x_flash.o(i.FLASH_GetReadOutProtectionStatus), (24 bytes).
    Removing stm32f10x_flash.o(i.FLASH_GetStatus), (52 bytes).
    Removing stm32f10x_flash.o(i.FLASH_GetUserOptionByte), (12 bytes).
    Removing stm32f10x_flash.o(i.FLASH_GetWriteProtectionOptionByte), (12 bytes).
    Removing stm32f10x_flash.o(i.FLASH_HalfCycleAccessCmd), (28 bytes).
    Removing stm32f10x_flash.o(i.FLASH_ITConfig), (32 bytes).
    Removing stm32f10x_flash.o(i.FLASH_Lock), (20 bytes).
    Removing stm32f10x_flash.o(i.FLASH_LockBank1), (20 bytes).
    Removing stm32f10x_flash.o(i.FLASH_PrefetchBufferCmd), (28 bytes).
    Removing stm32f10x_flash.o(i.FLASH_ProgramHalfWord), (64 bytes).
    Removing stm32f10x_flash.o(i.FLASH_ProgramOptionByteData), (84 bytes).
    Removing stm32f10x_flash.o(i.FLASH_ProgramWord), (108 bytes).
    Removing stm32f10x_flash.o(i.FLASH_ReadOutProtection), (172 bytes).
    Removing stm32f10x_flash.o(i.FLASH_SetLatency), (24 bytes).
    Removing stm32f10x_flash.o(i.FLASH_Unlock), (24 bytes).
    Removing stm32f10x_flash.o(i.FLASH_UnlockBank1), (24 bytes).
    Removing stm32f10x_flash.o(i.FLASH_UserOptionByteConfig), (104 bytes).
    Removing stm32f10x_flash.o(i.FLASH_WaitForLastBank1Operation), (38 bytes).
    Removing stm32f10x_flash.o(i.FLASH_WaitForLastOperation), (38 bytes).
    Removing stm32f10x_tim.o(i.TI1_Config), (128 bytes).
    Removing stm32f10x_tim.o(i.TI2_Config), (152 bytes).
    Removing stm32f10x_tim.o(i.TI3_Config), (144 bytes).
    Removing stm32f10x_tim.o(i.TI4_Config), (152 bytes).
    Removing stm32f10x_tim.o(i.TIM_ARRPreloadConfig), (24 bytes).
    Removing stm32f10x_tim.o(i.TIM_BDTRConfig), (32 bytes).
    Removing stm32f10x_tim.o(i.TIM_BDTRStructInit), (18 bytes).
    Removing stm32f10x_tim.o(i.TIM_CCPreloadControl), (24 bytes).
    Removing stm32f10x_tim.o(i.TIM_CCxCmd), (30 bytes).
    Removing stm32f10x_tim.o(i.TIM_CCxNCmd), (30 bytes).
    Removing stm32f10x_tim.o(i.TIM_ClearOC1Ref), (18 bytes).
    Removing stm32f10x_tim.o(i.TIM_ClearOC2Ref), (24 bytes).
    Removing stm32f10x_tim.o(i.TIM_ClearOC3Ref), (18 bytes).
    Removing stm32f10x_tim.o(i.TIM_ClearOC4Ref), (24 bytes).
    Removing stm32f10x_tim.o(i.TIM_CounterModeConfig), (18 bytes).
    Removing stm32f10x_tim.o(i.TIM_CtrlPWMOutputs), (30 bytes).
    Removing stm32f10x_tim.o(i.TIM_DMACmd), (18 bytes).
    Removing stm32f10x_tim.o(i.TIM_DMAConfig), (10 bytes).
    Removing stm32f10x_tim.o(i.TIM_DeInit), (488 bytes).
    Removing stm32f10x_tim.o(i.TIM_ETRClockMode1Config), (54 bytes).
    Removing stm32f10x_tim.o(i.TIM_ETRClockMode2Config), (32 bytes).
    Removing stm32f10x_tim.o(i.TIM_ETRConfig), (28 bytes).
    Removing stm32f10x_tim.o(i.TIM_EncoderInterfaceConfig), (66 bytes).
    Removing stm32f10x_tim.o(i.TIM_ForcedOC1Config), (18 bytes).
    Removing stm32f10x_tim.o(i.TIM_ForcedOC2Config), (26 bytes).
    Removing stm32f10x_tim.o(i.TIM_ForcedOC3Config), (18 bytes).
    Removing stm32f10x_tim.o(i.TIM_ForcedOC4Config), (26 bytes).
    Removing stm32f10x_tim.o(i.TIM_GenerateEvent), (4 bytes).
    Removing stm32f10x_tim.o(i.TIM_GetCapture1), (6 bytes).
    Removing stm32f10x_tim.o(i.TIM_GetCapture2), (6 bytes).
    Removing stm32f10x_tim.o(i.TIM_GetCapture3), (6 bytes).
    Removing stm32f10x_tim.o(i.TIM_GetCapture4), (8 bytes).
    Removing stm32f10x_tim.o(i.TIM_GetCounter), (6 bytes).
    Removing stm32f10x_tim.o(i.TIM_GetFlagStatus), (18 bytes).
    Removing stm32f10x_tim.o(i.TIM_GetPrescaler), (6 bytes).
    Removing stm32f10x_tim.o(i.TIM_ICInit), (172 bytes).
    Removing stm32f10x_tim.o(i.TIM_ICStructInit), (18 bytes).
    Removing stm32f10x_tim.o(i.TIM_ITRxExternalClockConfig), (24 bytes).
    Removing stm32f10x_tim.o(i.TIM_InternalClockConfig), (12 bytes).
    Removing stm32f10x_tim.o(i.TIM_OC1FastConfig), (18 bytes).
    Removing stm32f10x_tim.o(i.TIM_OC1Init), (152 bytes).
    Removing stm32f10x_tim.o(i.TIM_OC1NPolarityConfig), (18 bytes).
    Removing stm32f10x_tim.o(i.TIM_OC1PolarityConfig), (18 bytes).
    Removing stm32f10x_tim.o(i.TIM_OC1PreloadConfig), (18 bytes).
    Removing stm32f10x_tim.o(i.TIM_OC2FastConfig), (26 bytes).
    Removing stm32f10x_tim.o(i.TIM_OC2Init), (164 bytes).
    Removing stm32f10x_tim.o(i.TIM_OC2NPolarityConfig), (26 bytes).
    Removing stm32f10x_tim.o(i.TIM_OC2PolarityConfig), (26 bytes).
    Removing stm32f10x_tim.o(i.TIM_OC2PreloadConfig), (26 bytes).
    Removing stm32f10x_tim.o(i.TIM_OC3FastConfig), (18 bytes).
    Removing stm32f10x_tim.o(i.TIM_OC3Init), (160 bytes).
    Removing stm32f10x_tim.o(i.TIM_OC3NPolarityConfig), (26 bytes).
    Removing stm32f10x_tim.o(i.TIM_OC3PolarityConfig), (26 bytes).
    Removing stm32f10x_tim.o(i.TIM_OC3PreloadConfig), (18 bytes).
    Removing stm32f10x_tim.o(i.TIM_OC4FastConfig), (26 bytes).
    Removing stm32f10x_tim.o(i.TIM_OC4Init), (124 bytes).
    Removing stm32f10x_tim.o(i.TIM_OC4PolarityConfig), (26 bytes).
    Removing stm32f10x_tim.o(i.TIM_OC4PreloadConfig), (26 bytes).
    Removing stm32f10x_tim.o(i.TIM_OCStructInit), (20 bytes).
    Removing stm32f10x_tim.o(i.TIM_PWMIConfig), (124 bytes).
    Removing stm32f10x_tim.o(i.TIM_PrescalerConfig), (6 bytes).
    Removing stm32f10x_tim.o(i.TIM_SelectCCDMA), (24 bytes).
    Removing stm32f10x_tim.o(i.TIM_SelectCOM), (24 bytes).
    Removing stm32f10x_tim.o(i.TIM_SelectHallSensor), (24 bytes).
    Removing stm32f10x_tim.o(i.TIM_SelectInputTrigger), (18 bytes).
    Removing stm32f10x_tim.o(i.TIM_SelectMasterSlaveMode), (18 bytes).
    Removing stm32f10x_tim.o(i.TIM_SelectOCxM), (82 bytes).
    Removing stm32f10x_tim.o(i.TIM_SelectOnePulseMode), (18 bytes).
    Removing stm32f10x_tim.o(i.TIM_SelectOutputTrigger), (18 bytes).
    Removing stm32f10x_tim.o(i.TIM_SelectSlaveMode), (18 bytes).
    Removing stm32f10x_tim.o(i.TIM_SetAutoreload), (4 bytes).
    Removing stm32f10x_tim.o(i.TIM_SetClockDivision), (18 bytes).
    Removing stm32f10x_tim.o(i.TIM_SetCompare1), (4 bytes).
    Removing stm32f10x_tim.o(i.TIM_SetCompare2), (4 bytes).
    Removing stm32f10x_tim.o(i.TIM_SetCompare3), (4 bytes).
    Removing stm32f10x_tim.o(i.TIM_SetCompare4), (6 bytes).
    Removing stm32f10x_tim.o(i.TIM_SetCounter), (4 bytes).
    Removing stm32f10x_tim.o(i.TIM_SetIC1Prescaler), (18 bytes).
    Removing stm32f10x_tim.o(i.TIM_SetIC2Prescaler), (26 bytes).
    Removing stm32f10x_tim.o(i.TIM_SetIC3Prescaler), (18 bytes).
    Removing stm32f10x_tim.o(i.TIM_SetIC4Prescaler), (26 bytes).
    Removing stm32f10x_tim.o(i.TIM_TIxExternalClockConfig), (62 bytes).
    Removing stm32f10x_tim.o(i.TIM_TimeBaseStructInit), (18 bytes).
    Removing stm32f10x_tim.o(i.TIM_UpdateDisableConfig), (24 bytes).
    Removing stm32f10x_tim.o(i.TIM_UpdateRequestConfig), (24 bytes).
    Removing stm32f10x_adc.o(i.ADC_AnalogWatchdogCmd), (20 bytes).
    Removing stm32f10x_adc.o(i.ADC_AnalogWatchdogSingleChannelConfig), (16 bytes).
    Removing stm32f10x_adc.o(i.ADC_AnalogWatchdogThresholdsConfig), (6 bytes).
    Removing stm32f10x_adc.o(i.ADC_AutoInjectedConvCmd), (22 bytes).
    Removing stm32f10x_adc.o(i.ADC_ClearFlag), (6 bytes).
    Removing stm32f10x_adc.o(i.ADC_ClearITPendingBit), (10 bytes).
    Removing stm32f10x_adc.o(i.ADC_Cmd), (22 bytes).
    Removing stm32f10x_adc.o(i.ADC_DMACmd), (22 bytes).
    Removing stm32f10x_adc.o(i.ADC_DeInit), (92 bytes).
    Removing stm32f10x_adc.o(i.ADC_DiscModeChannelCountConfig), (24 bytes).
    Removing stm32f10x_adc.o(i.ADC_DiscModeCmd), (22 bytes).
    Removing stm32f10x_adc.o(i.ADC_ExternalTrigConvCmd), (22 bytes).
    Removing stm32f10x_adc.o(i.ADC_ExternalTrigInjectedConvCmd), (22 bytes).
    Removing stm32f10x_adc.o(i.ADC_ExternalTrigInjectedConvConfig), (16 bytes).
    Removing stm32f10x_adc.o(i.ADC_GetCalibrationStatus), (20 bytes).
    Removing stm32f10x_adc.o(i.ADC_GetConversionValue), (8 bytes).
    Removing stm32f10x_adc.o(i.ADC_GetDualModeConversionValue), (12 bytes).
    Removing stm32f10x_adc.o(i.ADC_GetFlagStatus), (18 bytes).
    Removing stm32f10x_adc.o(i.ADC_GetITStatus), (36 bytes).
    Removing stm32f10x_adc.o(i.ADC_GetInjectedConversionValue), (28 bytes).
    Removing stm32f10x_adc.o(i.ADC_GetResetCalibrationStatus), (20 bytes).
    Removing stm32f10x_adc.o(i.ADC_GetSoftwareStartConvStatus), (20 bytes).
    Removing stm32f10x_adc.o(i.ADC_GetSoftwareStartInjectedConvCmdStatus), (20 bytes).
    Removing stm32f10x_adc.o(i.ADC_ITConfig), (24 bytes).
    Removing stm32f10x_adc.o(i.ADC_Init), (80 bytes).
    Removing stm32f10x_adc.o(i.ADC_InjectedChannelConfig), (130 bytes).
    Removing stm32f10x_adc.o(i.ADC_InjectedDiscModeCmd), (22 bytes).
    Removing stm32f10x_adc.o(i.ADC_InjectedSequencerLengthConfig), (24 bytes).
    Removing stm32f10x_adc.o(i.ADC_RegularChannelConfig), (184 bytes).
    Removing stm32f10x_adc.o(i.ADC_ResetCalibration), (10 bytes).
    Removing stm32f10x_adc.o(i.ADC_SetInjectedOffset), (20 bytes).
    Removing stm32f10x_adc.o(i.ADC_SoftwareStartConvCmd), (22 bytes).
    Removing stm32f10x_adc.o(i.ADC_SoftwareStartInjectedConvCmd), (22 bytes).
    Removing stm32f10x_adc.o(i.ADC_StartCalibration), (10 bytes).
    Removing stm32f10x_adc.o(i.ADC_StructInit), (18 bytes).
    Removing stm32f10x_adc.o(i.ADC_TempSensorVrefintCmd), (36 bytes).
    Removing stm32f10x_pwr.o(i.PWR_BackupAccessCmd), (12 bytes).
    Removing stm32f10x_pwr.o(i.PWR_ClearFlag), (20 bytes).
    Removing stm32f10x_pwr.o(i.PWR_DeInit), (22 bytes).
    Removing stm32f10x_pwr.o(i.PWR_EnterSTANDBYMode), (52 bytes).
    Removing stm32f10x_pwr.o(i.PWR_EnterSTOPMode), (64 bytes).
    Removing stm32f10x_pwr.o(i.PWR_GetFlagStatus), (24 bytes).
    Removing stm32f10x_pwr.o(i.PWR_PVDCmd), (12 bytes).
    Removing stm32f10x_pwr.o(i.PWR_PVDLevelConfig), (24 bytes).
    Removing stm32f10x_pwr.o(i.PWR_WakeUpPinCmd), (12 bytes).
    Removing stm32f10x_sdio.o(i.SDIO_CEATAITCmd), (16 bytes).
    Removing stm32f10x_sdio.o(i.SDIO_ClearFlag), (12 bytes).
    Removing stm32f10x_sdio.o(i.SDIO_ClearITPendingBit), (12 bytes).
    Removing stm32f10x_sdio.o(i.SDIO_ClockCmd), (12 bytes).
    Removing stm32f10x_sdio.o(i.SDIO_CmdStructInit), (14 bytes).
    Removing stm32f10x_sdio.o(i.SDIO_CommandCompletionCmd), (12 bytes).
    Removing stm32f10x_sdio.o(i.SDIO_DMACmd), (12 bytes).
    Removing stm32f10x_sdio.o(i.SDIO_DataConfig), (48 bytes).
    Removing stm32f10x_sdio.o(i.SDIO_DataStructInit), (20 bytes).
    Removing stm32f10x_sdio.o(i.SDIO_DeInit), (36 bytes).
    Removing stm32f10x_sdio.o(i.SDIO_GetCommandResponse), (12 bytes).
    Removing stm32f10x_sdio.o(i.SDIO_GetDataCounter), (12 bytes).
    Removing stm32f10x_sdio.o(i.SDIO_GetFIFOCount), (12 bytes).
    Removing stm32f10x_sdio.o(i.SDIO_GetFlagStatus), (24 bytes).
    Removing stm32f10x_sdio.o(i.SDIO_GetITStatus), (24 bytes).
    Removing stm32f10x_sdio.o(i.SDIO_GetPowerState), (16 bytes).
    Removing stm32f10x_sdio.o(i.SDIO_GetResponse), (24 bytes).
    Removing stm32f10x_sdio.o(i.SDIO_ITConfig), (32 bytes).
    Removing stm32f10x_sdio.o(i.SDIO_Init), (48 bytes).
    Removing stm32f10x_sdio.o(i.SDIO_ReadData), (12 bytes).
    Removing stm32f10x_sdio.o(i.SDIO_SendCEATACmd), (12 bytes).
    Removing stm32f10x_sdio.o(i.SDIO_SendCommand), (44 bytes).
    Removing stm32f10x_sdio.o(i.SDIO_SendSDIOSuspendCmd), (12 bytes).
    Removing stm32f10x_sdio.o(i.SDIO_SetPowerState), (28 bytes).
    Removing stm32f10x_sdio.o(i.SDIO_SetSDIOOperation), (12 bytes).
    Removing stm32f10x_sdio.o(i.SDIO_SetSDIOReadWaitMode), (12 bytes).
    Removing stm32f10x_sdio.o(i.SDIO_StartSDIOReadWait), (12 bytes).
    Removing stm32f10x_sdio.o(i.SDIO_StopSDIOReadWait), (12 bytes).
    Removing stm32f10x_sdio.o(i.SDIO_StructInit), (16 bytes).
    Removing stm32f10x_sdio.o(i.SDIO_WriteData), (12 bytes).
    Removing stm32f10x_iwdg.o(i.IWDG_Enable), (16 bytes).
    Removing stm32f10x_iwdg.o(i.IWDG_GetFlagStatus), (24 bytes).
    Removing stm32f10x_iwdg.o(i.IWDG_ReloadCounter), (16 bytes).
    Removing stm32f10x_iwdg.o(i.IWDG_SetPrescaler), (12 bytes).
    Removing stm32f10x_iwdg.o(i.IWDG_SetReload), (12 bytes).
    Removing stm32f10x_iwdg.o(i.IWDG_WriteAccessCmd), (12 bytes).
    Removing stm32f10x_rcc.o(i.RCC_ADCCLKConfig), (24 bytes).
    Removing stm32f10x_rcc.o(i.RCC_AHBPeriphClockCmd), (32 bytes).
    Removing stm32f10x_rcc.o(i.RCC_AdjustHSICalibrationValue), (24 bytes).
    Removing stm32f10x_rcc.o(i.RCC_BackupResetCmd), (12 bytes).
    Removing stm32f10x_rcc.o(i.RCC_ClearFlag), (20 bytes).
    Removing stm32f10x_rcc.o(i.RCC_ClearITPendingBit), (12 bytes).
    Removing stm32f10x_rcc.o(i.RCC_ClockSecuritySystemCmd), (12 bytes).
    Removing stm32f10x_rcc.o(i.RCC_DeInit), (76 bytes).
    Removing stm32f10x_rcc.o(i.RCC_GetFlagStatus), (60 bytes).
    Removing stm32f10x_rcc.o(i.RCC_GetITStatus), (24 bytes).
    Removing stm32f10x_rcc.o(i.RCC_GetSYSCLKSource), (16 bytes).
    Removing stm32f10x_rcc.o(i.RCC_HCLKConfig), (24 bytes).
    Removing stm32f10x_rcc.o(i.RCC_HSEConfig), (76 bytes).
    Removing stm32f10x_rcc.o(i.RCC_HSICmd), (12 bytes).
    Removing stm32f10x_rcc.o(i.RCC_ITConfig), (32 bytes).
    Removing stm32f10x_rcc.o(i.RCC_LSEConfig), (52 bytes).
    Removing stm32f10x_rcc.o(i.RCC_LSICmd), (12 bytes).
    Removing stm32f10x_rcc.o(i.RCC_MCOConfig), (12 bytes).
    Removing stm32f10x_rcc.o(i.RCC_PCLK1Config), (24 bytes).
    Removing stm32f10x_rcc.o(i.RCC_PCLK2Config), (24 bytes).
    Removing stm32f10x_rcc.o(i.RCC_PLLCmd), (12 bytes).
    Removing stm32f10x_rcc.o(i.RCC_PLLConfig), (28 bytes).
    Removing stm32f10x_rcc.o(i.RCC_RTCCLKCmd), (12 bytes).
    Removing stm32f10x_rcc.o(i.RCC_RTCCLKConfig), (16 bytes).
    Removing stm32f10x_rcc.o(i.RCC_SYSCLKConfig), (24 bytes).
    Removing stm32f10x_rcc.o(i.RCC_USBCLKConfig), (12 bytes).
    Removing stm32f10x_rcc.o(i.RCC_WaitForHSEStartUp), (56 bytes).
    Removing stm32f10x_wwdg.o(i.WWDG_ClearFlag), (12 bytes).
    Removing stm32f10x_wwdg.o(i.WWDG_DeInit), (22 bytes).
    Removing stm32f10x_wwdg.o(i.WWDG_Enable), (16 bytes).
    Removing stm32f10x_wwdg.o(i.WWDG_EnableIT), (12 bytes).
    Removing stm32f10x_wwdg.o(i.WWDG_GetFlagStatus), (12 bytes).
    Removing stm32f10x_wwdg.o(i.WWDG_SetCounter), (16 bytes).
    Removing stm32f10x_wwdg.o(i.WWDG_SetPrescaler), (24 bytes).
    Removing stm32f10x_wwdg.o(i.WWDG_SetWindowValue), (40 bytes).
    Removing stm32f10x_dma.o(i.DMA_ClearFlag), (28 bytes).
    Removing stm32f10x_dma.o(i.DMA_ClearITPendingBit), (28 bytes).
    Removing stm32f10x_dma.o(i.DMA_Cmd), (24 bytes).
    Removing stm32f10x_dma.o(i.DMA_DeInit), (332 bytes).
    Removing stm32f10x_dma.o(i.DMA_GetCurrDataCounter), (8 bytes).
    Removing stm32f10x_dma.o(i.DMA_GetFlagStatus), (44 bytes).
    Removing stm32f10x_dma.o(i.DMA_GetITStatus), (44 bytes).
    Removing stm32f10x_dma.o(i.DMA_ITConfig), (18 bytes).
    Removing stm32f10x_dma.o(i.DMA_Init), (60 bytes).
    Removing stm32f10x_dma.o(i.DMA_SetCurrDataCounter), (4 bytes).
    Removing stm32f10x_dma.o(i.DMA_StructInit), (26 bytes).
    Removing cjson.o(i.add_item_to_array), (54 bytes).
    Removing cjson.o(i.add_item_to_object), (122 bytes).
    Removing cjson.o(i.cJSON_AddArrayToObject), (48 bytes).
    Removing cjson.o(i.cJSON_AddBoolToObject), (52 bytes).
    Removing cjson.o(i.cJSON_AddFalseToObject), (48 bytes).
    Removing cjson.o(i.cJSON_AddItemReferenceToArray), (36 bytes).
    Removing cjson.o(i.cJSON_AddItemReferenceToObject), (48 bytes).
    Removing cjson.o(i.cJSON_AddItemToArray), (16 bytes).
    Removing cjson.o(i.cJSON_AddItemToObject), (32 bytes).
    Removing cjson.o(i.cJSON_AddItemToObjectCS), (32 bytes).
    Removing cjson.o(i.cJSON_AddNullToObject), (48 bytes).
    Removing cjson.o(i.cJSON_AddNumberToObject), (60 bytes).
    Removing cjson.o(i.cJSON_AddObjectToObject), (48 bytes).
    Removing cjson.o(i.cJSON_AddRawToObject), (52 bytes).
    Removing cjson.o(i.cJSON_AddStringToObject), (52 bytes).
    Removing cjson.o(i.cJSON_AddTrueToObject), (48 bytes).
    Removing cjson.o(i.cJSON_Compare), (384 bytes).
    Removing cjson.o(i.cJSON_CreateArray), (24 bytes).
    Removing cjson.o(i.cJSON_CreateArrayReference), (36 bytes).
    Removing cjson.o(i.cJSON_CreateBool), (32 bytes).
    Removing cjson.o(i.cJSON_CreateDoubleArray), (106 bytes).
    Removing cjson.o(i.cJSON_CreateFalse), (24 bytes).
    Removing cjson.o(i.cJSON_CreateFloatArray), (110 bytes).
    Removing cjson.o(i.cJSON_CreateIntArray), (110 bytes).
    Removing cjson.o(i.cJSON_CreateNull), (24 bytes).
    Removing cjson.o(i.cJSON_CreateNumber), (100 bytes).
    Removing cjson.o(i.cJSON_CreateObject), (24 bytes).
    Removing cjson.o(i.cJSON_CreateObjectReference), (36 bytes).
    Removing cjson.o(i.cJSON_CreateRaw), (52 bytes).
    Removing cjson.o(i.cJSON_CreateString), (52 bytes).
    Removing cjson.o(i.cJSON_CreateStringArray), (100 bytes).
    Removing cjson.o(i.cJSON_CreateStringReference), (36 bytes).
    Removing cjson.o(i.cJSON_CreateTrue), (24 bytes).
    Removing cjson.o(i.cJSON_DeleteItemFromArray), (22 bytes).
    Removing cjson.o(i.cJSON_DeleteItemFromObject), (22 bytes).
    Removing cjson.o(i.cJSON_DeleteItemFromObjectCaseSensitive), (22 bytes).
    Removing cjson.o(i.cJSON_DetachItemFromArray), (34 bytes).
    Removing cjson.o(i.cJSON_DetachItemFromObject), (26 bytes).
    Removing cjson.o(i.cJSON_DetachItemFromObjectCaseSensitive), (26 bytes).
    Removing cjson.o(i.cJSON_DetachItemViaPointer), (64 bytes).
    Removing cjson.o(i.cJSON_Duplicate), (192 bytes).
    Removing cjson.o(i.cJSON_GetArrayItem), (24 bytes).
    Removing cjson.o(i.cJSON_GetArraySize), (28 bytes).
    Removing cjson.o(i.cJSON_GetErrorPtr), (16 bytes).
    Removing cjson.o(i.cJSON_GetNumberValue), (28 bytes).
    Removing cjson.o(i.cJSON_GetObjectItemCaseSensitive), (18 bytes).
    Removing cjson.o(i.cJSON_GetStringValue), (20 bytes).
    Removing cjson.o(i.cJSON_HasObjectItem), (24 bytes).
    Removing cjson.o(i.cJSON_InitHooks), (100 bytes).
    Removing cjson.o(i.cJSON_InsertItemInArray), (70 bytes).
    Removing cjson.o(i.cJSON_IsArray), (22 bytes).
    Removing cjson.o(i.cJSON_IsBool), (24 bytes).
    Removing cjson.o(i.cJSON_IsFalse), (20 bytes).
    Removing cjson.o(i.cJSON_IsInvalid), (20 bytes).
    Removing cjson.o(i.cJSON_IsNull), (22 bytes).
    Removing cjson.o(i.cJSON_IsNumber), (22 bytes).
    Removing cjson.o(i.cJSON_IsObject), (22 bytes).
    Removing cjson.o(i.cJSON_IsRaw), (22 bytes).
    Removing cjson.o(i.cJSON_IsString), (22 bytes).
    Removing cjson.o(i.cJSON_IsTrue), (22 bytes).
    Removing cjson.o(i.cJSON_Minify), (154 bytes).
    Removing cjson.o(i.cJSON_ParseWithLength), (20 bytes).
    Removing cjson.o(i.cJSON_Print), (20 bytes).
    Removing cjson.o(i.cJSON_PrintBuffered), (96 bytes).
    Removing cjson.o(i.cJSON_PrintPreallocated), (68 bytes).
    Removing cjson.o(i.cJSON_PrintUnformatted), (20 bytes).
    Removing cjson.o(i.cJSON_ReplaceItemInArray), (42 bytes).
    Removing cjson.o(i.cJSON_ReplaceItemInObject), (22 bytes).
    Removing cjson.o(i.cJSON_ReplaceItemInObjectCaseSensitive), (22 bytes).
    Removing cjson.o(i.cJSON_ReplaceItemViaPointer), (96 bytes).
    Removing cjson.o(i.cJSON_SetNumberHelper), (84 bytes).
    Removing cjson.o(i.cJSON_SetValuestring), (100 bytes).
    Removing cjson.o(i.cJSON_Version), (40 bytes).
    Removing cjson.o(i.cJSON_free), (20 bytes).
    Removing cjson.o(i.cJSON_malloc), (20 bytes).
    Removing cjson.o(i.cJSON_strdup), (56 bytes).
    Removing cjson.o(i.cast_away_const), (2 bytes).
    Removing cjson.o(i.compare_double), (116 bytes).
    Removing cjson.o(i.create_reference), (60 bytes).
    Removing cjson.o(i.ensure), (184 bytes).
    Removing cjson.o(i.get_array_item), (30 bytes).
    Removing cjson.o(i.minify_string), (116 bytes).
    Removing cjson.o(i.print), (178 bytes).
    Removing cjson.o(i.print_array), (178 bytes).
    Removing cjson.o(i.print_number), (340 bytes).
    Removing cjson.o(i.print_object), (372 bytes).
    Removing cjson.o(i.print_string), (16 bytes).
    Removing cjson.o(i.print_string_ptr), (372 bytes).
    Removing cjson.o(i.print_value), (260 bytes).
    Removing cjson.o(i.replace_item_in_object), (96 bytes).
    Removing cjson.o(i.skip_multiline_comment), (50 bytes).
    Removing cjson.o(i.skip_oneline_comment), (42 bytes).
    Removing cjson.o(i.suffix_object), (6 bytes).
    Removing cjson.o(i.update_offset), (36 bytes).
    Removing cjson.o(.bss), (15 bytes).
    Removing usart3.o(i.ESP8266_Init), (472 bytes).
    Removing usart3.o(i.ESP8266_SendCmd), (80 bytes).
    Removing usart3.o(i.ESP8266_SendData), (64 bytes).
    Removing ga10.o(i.GA10_SendData), (20 bytes).
    Removing ga10.o(.bss), (2048 bytes).
    Removing timer.o(.bss), (2048 bytes).
    Removing f2d.o(.text), (38 bytes).

405 unused section(s) (total 23467 bytes) removed from the image.

==============================================================================

Image Symbol Table

    Local Symbols

    Symbol Name                              Value     Ov Type        Size  Object(Section)

    ../clib/../cmprslib/zerorunl2.c          0x00000000   Number         0  __dczerorl2.o ABSOLUTE
    ../clib/microlib/ctype/ctype.c           0x00000000   Number         0  ctype_c.o ABSOLUTE
    ../clib/microlib/ctype/ctype.c           0x00000000   Number         0  isspace_c.o ABSOLUTE
    ../clib/microlib/ctype/tolower.c         0x00000000   Number         0  tolower.o ABSOLUTE
    ../clib/microlib/division.c              0x00000000   Number         0  uidiv.o ABSOLUTE
    ../clib/microlib/division.c              0x00000000   Number         0  uldiv.o ABSOLUTE
    ../clib/microlib/errno.c                 0x00000000   Number         0  errno.o ABSOLUTE
    ../clib/microlib/init/entry.s            0x00000000   Number         0  entry8a.o ABSOLUTE
    ../clib/microlib/init/entry.s            0x00000000   Number         0  entry12b.o ABSOLUTE
    ../clib/microlib/init/entry.s            0x00000000   Number         0  entry12a.o ABSOLUTE
    ../clib/microlib/init/entry.s            0x00000000   Number         0  entry11b.o ABSOLUTE
    ../clib/microlib/init/entry.s            0x00000000   Number         0  entry11a.o ABSOLUTE
    ../clib/microlib/init/entry.s            0x00000000   Number         0  entry9a.o ABSOLUTE
    ../clib/microlib/init/entry.s            0x00000000   Number         0  entry10b.o ABSOLUTE
    ../clib/microlib/init/entry.s            0x00000000   Number         0  entry10a.o ABSOLUTE
    ../clib/microlib/init/entry.s            0x00000000   Number         0  entry9b.o ABSOLUTE
    ../clib/microlib/init/entry.s            0x00000000   Number         0  entry5.o ABSOLUTE
    ../clib/microlib/init/entry.s            0x00000000   Number         0  entry2.o ABSOLUTE
    ../clib/microlib/init/entry.s            0x00000000   Number         0  entry8b.o ABSOLUTE
    ../clib/microlib/init/entry.s            0x00000000   Number         0  entry7a.o ABSOLUTE
    ../clib/microlib/init/entry.s            0x00000000   Number         0  entry.o ABSOLUTE
    ../clib/microlib/init/entry.s            0x00000000   Number         0  entry7b.o ABSOLUTE
    ../clib/microlib/longlong.c              0x00000000   Number         0  llushr.o ABSOLUTE
    ../clib/microlib/longlong.c              0x00000000   Number         0  llsshr.o ABSOLUTE
    ../clib/microlib/longlong.c              0x00000000   Number         0  llshl.o ABSOLUTE
    ../clib/microlib/malloc/malloc.c         0x00000000   Number         0  mallocra.o ABSOLUTE
    ../clib/microlib/malloc/malloc.c         0x00000000   Number         0  mallocr.o ABSOLUTE
    ../clib/microlib/malloc/malloc.c         0x00000000   Number         0  malloc.o ABSOLUTE
    ../clib/microlib/malloc/malloc.c         0x00000000   Number         0  malloca.o ABSOLUTE
    ../clib/microlib/malloc/mvars.c          0x00000000   Number         0  mvars.o ABSOLUTE
    ../clib/microlib/printf/printf.c         0x00000000   Number         0  printf2.o ABSOLUTE
    ../clib/microlib/printf/printf.c         0x00000000   Number         0  printf5.o ABSOLUTE
    ../clib/microlib/printf/printf.c         0x00000000   Number         0  printf8.o ABSOLUTE
    ../clib/microlib/printf/printf.c         0x00000000   Number         0  printfb.o ABSOLUTE
    ../clib/microlib/printf/printf.c         0x00000000   Number         0  printf7.o ABSOLUTE
    ../clib/microlib/printf/printf.c         0x00000000   Number         0  printf0.o ABSOLUTE
    ../clib/microlib/printf/printf.c         0x00000000   Number         0  printf6.o ABSOLUTE
    ../clib/microlib/printf/printf.c         0x00000000   Number         0  printf1.o ABSOLUTE
    ../clib/microlib/printf/printf.c         0x00000000   Number         0  printf3.o ABSOLUTE
    ../clib/microlib/printf/printf.c         0x00000000   Number         0  printfa.o ABSOLUTE
    ../clib/microlib/printf/printf.c         0x00000000   Number         0  printf4.o ABSOLUTE
    ../clib/microlib/printf/stubs.s          0x00000000   Number         0  stubs.o ABSOLUTE
    ../clib/microlib/string/memcpy.c         0x00000000   Number         0  memcpya.o ABSOLUTE
    ../clib/microlib/string/memcpy.c         0x00000000   Number         0  memcpyb.o ABSOLUTE
    ../clib/microlib/string/memset.c         0x00000000   Number         0  memseta.o ABSOLUTE
    ../clib/microlib/string/strcat.c         0x00000000   Number         0  strcat.o ABSOLUTE
    ../clib/microlib/string/strchr.c         0x00000000   Number         0  strchr.o ABSOLUTE
    ../clib/microlib/string/strcmp.c         0x00000000   Number         0  strcmp.o ABSOLUTE
    ../clib/microlib/string/strcpy.c         0x00000000   Number         0  strcpy.o ABSOLUTE
    ../clib/microlib/string/strlen.c         0x00000000   Number         0  strlen.o ABSOLUTE
    ../clib/microlib/string/strncmp.c        0x00000000   Number         0  strncmp.o ABSOLUTE
    ../clib/microlib/string/strstr.c         0x00000000   Number         0  strstr.o ABSOLUTE
    ../clib/microlib/stubs.s                 0x00000000   Number         0  useno.o ABSOLUTE
    ../clib/microlib/stubs.s                 0x00000000   Number         0  iusefp.o ABSOLUTE
    ../clib/scanf.c                          0x00000000   Number         0  scanf_fp.o ABSOLUTE
    ../clib/scanf.c                          0x00000000   Number         0  __0sscanf.o ABSOLUTE
    ../clib/scanf.c                          0x00000000   Number         0  scanf_char.o ABSOLUTE
    ../clib/scanf.c                          0x00000000   Number         0  strtod.o ABSOLUTE
    ../clib/scanf.c                          0x00000000   Number         0  _sgetc.o ABSOLUTE
    ../clib/scanf.c                          0x00000000   Number         0  _scanf.o ABSOLUTE
    ../fplib/microlib/d2f.c                  0x00000000   Number         0  d2f.o ABSOLUTE
    ../fplib/microlib/f2d.c                  0x00000000   Number         0  f2d.o ABSOLUTE
    ../fplib/microlib/fpadd.c                0x00000000   Number         0  dadd.o ABSOLUTE
    ../fplib/microlib/fpdiv.c                0x00000000   Number         0  ddiv.o ABSOLUTE
    ../fplib/microlib/fpepilogue.c           0x00000000   Number         0  depilogue.o ABSOLUTE
    ../fplib/microlib/fpepilogue.c           0x00000000   Number         0  fepilogue.o ABSOLUTE
    ../fplib/microlib/fpfix.c                0x00000000   Number         0  dfixul.o ABSOLUTE
    ../fplib/microlib/fpfix.c                0x00000000   Number         0  dfixi.o ABSOLUTE
    ../fplib/microlib/fpflt.c                0x00000000   Number         0  dfltul.o ABSOLUTE
    ../fplib/microlib/fpflt.c                0x00000000   Number         0  dflti.o ABSOLUTE
    ../fplib/microlib/fpmul.c                0x00000000   Number         0  dmul.o ABSOLUTE
    ../fplib/microlib/fpscalb.c              0x00000000   Number         0  dscalb.o ABSOLUTE
    ../mathlib/atan.c                        0x00000000   Number         0  atan_x.o ABSOLUTE
    ../mathlib/atan.c                        0x00000000   Number         0  atan.o ABSOLUTE
    ../mathlib/atan2.c                       0x00000000   Number         0  atan2_x.o ABSOLUTE
    ../mathlib/atan2.c                       0x00000000   Number         0  atan2.o ABSOLUTE
    ../mathlib/dunder.c                      0x00000000   Number         0  dunder.o ABSOLUTE
    ../mathlib/fpclassify.c                  0x00000000   Number         0  fpclassify.o ABSOLUTE
    ../mathlib/poly.c                        0x00000000   Number         0  poly.o ABSOLUTE
    ../mathlib/qnan.c                        0x00000000   Number         0  qnan.o ABSOLUTE
    ../mathlib/strtod.c                      0x00000000   Number         0  strtod.o ABSOLUTE
    ..\CORE\core_cm3.c                       0x00000000   Number         0  core_cm3.o ABSOLUTE
    ..\CORE\startup_stm32f10x_hd.s           0x00000000   Number         0  startup_stm32f10x_hd.o ABSOLUTE
    ..\HARDWARE\HMC5883L\hmc5883l.c          0x00000000   Number         0  hmc5883l.o ABSOLUTE
    ..\HARDWARE\KEY\key.c                    0x00000000   Number         0  key.o ABSOLUTE
    ..\HARDWARE\LED\led.c                    0x00000000   Number         0  led.o ABSOLUTE
    ..\HARDWARE\OLED-SPI\oled.c              0x00000000   Number         0  oled.o ABSOLUTE
    ..\HARDWARE\STMFLASH\flash.c             0x00000000   Number         0  flash.o ABSOLUTE
    ..\HARDWARE\USART2\JR6001.c              0x00000000   Number         0  jr6001.o ABSOLUTE
    ..\HARDWARE\USART2\usart2.c              0x00000000   Number         0  usart2.o ABSOLUTE
    ..\NET\GA10\GA10.c                       0x00000000   Number         0  ga10.o ABSOLUTE
    ..\NET\Json\cJSON.c                      0x00000000   Number         0  cjson.o ABSOLUTE
    ..\NET\device\usart3.c                   0x00000000   Number         0  usart3.o ABSOLUTE
    ..\STM32F10x_FWLib\src\misc.c            0x00000000   Number         0  misc.o ABSOLUTE
    ..\STM32F10x_FWLib\src\stm32f10x_adc.c   0x00000000   Number         0  stm32f10x_adc.o ABSOLUTE
    ..\STM32F10x_FWLib\src\stm32f10x_dma.c   0x00000000   Number         0  stm32f10x_dma.o ABSOLUTE
    ..\STM32F10x_FWLib\src\stm32f10x_flash.c 0x00000000   Number         0  stm32f10x_flash.o ABSOLUTE
    ..\STM32F10x_FWLib\src\stm32f10x_gpio.c  0x00000000   Number         0  stm32f10x_gpio.o ABSOLUTE
    ..\STM32F10x_FWLib\src\stm32f10x_iwdg.c  0x00000000   Number         0  stm32f10x_iwdg.o ABSOLUTE
    ..\STM32F10x_FWLib\src\stm32f10x_pwr.c   0x00000000   Number         0  stm32f10x_pwr.o ABSOLUTE
    ..\STM32F10x_FWLib\src\stm32f10x_rcc.c   0x00000000   Number         0  stm32f10x_rcc.o ABSOLUTE
    ..\STM32F10x_FWLib\src\stm32f10x_sdio.c  0x00000000   Number         0  stm32f10x_sdio.o ABSOLUTE
    ..\STM32F10x_FWLib\src\stm32f10x_tim.c   0x00000000   Number         0  stm32f10x_tim.o ABSOLUTE
    ..\STM32F10x_FWLib\src\stm32f10x_usart.c 0x00000000   Number         0  stm32f10x_usart.o ABSOLUTE
    ..\STM32F10x_FWLib\src\stm32f10x_wwdg.c  0x00000000   Number         0  stm32f10x_wwdg.o ABSOLUTE
    ..\SYSTEM\delay\delay.c                  0x00000000   Number         0  delay.o ABSOLUTE
    ..\SYSTEM\sys\sys.c                      0x00000000   Number         0  sys.o ABSOLUTE
    ..\SYSTEM\usart\usart.c                  0x00000000   Number         0  usart.o ABSOLUTE
    ..\TASK\git\git.c                        0x00000000   Number         0  git.o ABSOLUTE
    ..\TASK\task\task.c                      0x00000000   Number         0  task.o ABSOLUTE
    ..\TASK\timer\timer.c                    0x00000000   Number         0  timer.o ABSOLUTE
    ..\\CORE\\core_cm3.c                     0x00000000   Number         0  core_cm3.o ABSOLUTE
    ..\\SYSTEM\\sys\\sys.c                   0x00000000   Number         0  sys.o ABSOLUTE
    cdcmple.s                                0x00000000   Number         0  cdcmple.o ABSOLUTE
    cdrcmple.s                               0x00000000   Number         0  cdrcmple.o ABSOLUTE
    dc.s                                     0x00000000   Number         0  dc.o ABSOLUTE
    handlers.s                               0x00000000   Number         0  handlers.o ABSOLUTE
    init.s                                   0x00000000   Number         0  init.o ABSOLUTE
    main.c                                   0x00000000   Number         0  main.o ABSOLUTE
    stm32f10x_it.c                           0x00000000   Number         0  stm32f10x_it.o ABSOLUTE
    system_stm32f10x.c                       0x00000000   Number         0  system_stm32f10x.o ABSOLUTE
    RESET                                    0x08000000   Section      304  startup_stm32f10x_hd.o(RESET)
    .ARM.Collect$$$$00000000                 0x08000130   Section        0  entry.o(.ARM.Collect$$$$00000000)
    .ARM.Collect$$$$00000001                 0x08000130   Section        4  entry2.o(.ARM.Collect$$$$00000001)
    .ARM.Collect$$$$00000004                 0x08000134   Section        4  entry5.o(.ARM.Collect$$$$00000004)
    .ARM.Collect$$$$00000008                 0x08000138   Section        0  entry7b.o(.ARM.Collect$$$$00000008)
    .ARM.Collect$$$$0000000A                 0x08000138   Section        0  entry8b.o(.ARM.Collect$$$$0000000A)
    .ARM.Collect$$$$0000000B                 0x08000138   Section        8  entry9a.o(.ARM.Collect$$$$0000000B)
    .ARM.Collect$$$$0000000E                 0x08000140   Section        4  entry12b.o(.ARM.Collect$$$$0000000E)
    .ARM.Collect$$$$0000000F                 0x08000144   Section        0  entry10a.o(.ARM.Collect$$$$0000000F)
    .ARM.Collect$$$$00000011                 0x08000144   Section        0  entry11a.o(.ARM.Collect$$$$00000011)
    .ARM.Collect$$$$00002712                 0x08000144   Section        4  entry2.o(.ARM.Collect$$$$00002712)
    __lit__00000000                          0x08000144   Data           4  entry2.o(.ARM.Collect$$$$00002712)
    .text                                    0x08000148   Section       36  startup_stm32f10x_hd.o(.text)
    .text                                    0x0800016c   Section        0  tolower.o(.text)
    .text                                    0x08000178   Section        0  memcpya.o(.text)
    .text                                    0x0800019c   Section        0  memseta.o(.text)
    .text                                    0x080001c0   Section        0  strcat.o(.text)
    .text                                    0x080001d8   Section        0  strstr.o(.text)
    .text                                    0x080001fc   Section        0  strchr.o(.text)
    .text                                    0x08000210   Section        0  strlen.o(.text)
    .text                                    0x0800021e   Section        0  strcmp.o(.text)
    .text                                    0x0800023a   Section        0  strncmp.o(.text)
    .text                                    0x08000258   Section        0  scanf_fp.o(.text)
    _fp_value                                0x08000259   Thumb Code   296  scanf_fp.o(.text)
    .text                                    0x080005b8   Section        0  dadd.o(.text)
    .text                                    0x08000706   Section        0  dmul.o(.text)
    .text                                    0x080007ea   Section        0  dflti.o(.text)
    .text                                    0x0800080c   Section        0  dfixi.o(.text)
    .text                                    0x0800084c   Section       48  cdcmple.o(.text)
    .text                                    0x0800087c   Section       48  cdrcmple.o(.text)
    .text                                    0x080008ac   Section        0  d2f.o(.text)
    .text                                    0x080008e4   Section        0  uidiv.o(.text)
    .text                                    0x08000910   Section        0  uldiv.o(.text)
    .text                                    0x08000972   Section        0  llshl.o(.text)
    .text                                    0x08000990   Section        0  llushr.o(.text)
    .text                                    0x080009b0   Section        0  llsshr.o(.text)
    .text                                    0x080009d4   Section        0  _sgetc.o(.text)
    .text                                    0x08000a14   Section        0  strtod.o(.text)
    _local_sscanf                            0x08000a15   Thumb Code    54  strtod.o(.text)
    .text                                    0x08000ab0   Section        0  iusefp.o(.text)
    .text                                    0x08000ab0   Section        0  fepilogue.o(.text)
    .text                                    0x08000b1e   Section        0  depilogue.o(.text)
    .text                                    0x08000bd8   Section        0  ddiv.o(.text)
    .text                                    0x08000cb6   Section        0  dfltul.o(.text)
    .text                                    0x08000cce   Section        0  dfixul.o(.text)
    .text                                    0x08000d00   Section       36  init.o(.text)
    .text                                    0x08000d24   Section        0  isspace_c.o(.text)
    .text                                    0x08000d2e   Section        0  dscalb.o(.text)
    .text                                    0x08000d5c   Section        0  ctype_c.o(.text)
    .text                                    0x08000d84   Section        0  __dczerorl2.o(.text)
    i.Automation_Close                       0x08000ddc   Section        0  git.o(i.Automation_Close)
    i.BusFault_Handler                       0x08000f38   Section        0  stm32f10x_it.o(i.BusFault_Handler)
    i.CLR_Buf                                0x08000f3c   Section        0  usart2.o(i.CLR_Buf)
    i.Check_Key_ON_OFF                       0x08000f58   Section        0  git.o(i.Check_Key_ON_OFF)
    i.DebugMon_Handler                       0x08001064   Section        0  stm32f10x_it.o(i.DebugMon_Handler)
    i.ESP8266_Clear                          0x08001068   Section        0  usart3.o(i.ESP8266_Clear)
    i.ESP8266_GetIPD                         0x08001084   Section        0  usart3.o(i.ESP8266_GetIPD)
    i.ESP8266_WaitRecive                     0x080010d4   Section        0  usart3.o(i.ESP8266_WaitRecive)
    i.FillBuf                                0x08001108   Section        0  ga10.o(i.FillBuf)
    i.GA10_Init                              0x08001208   Section        0  ga10.o(i.GA10_Init)
    i.GA10_SendCmd                           0x080014d0   Section        0  ga10.o(i.GA10_SendCmd)
    i.GB16_NUM                               0x0800153c   Section        0  oled.o(i.GB16_NUM)
    i.GENERAL_TIMClock_Enable                0x08001554   Section        0  timer.o(i.GENERAL_TIMClock_Enable)
    GENERAL_TIMClock_Enable                  0x08001555   Thumb Code    82  timer.o(i.GENERAL_TIMClock_Enable)
    i.GENERAL_TIM_Init                       0x080015a6   Section        0  timer.o(i.GENERAL_TIM_Init)
    i.GENERAL_TIM_Mode_Config                0x080015c6   Section        0  timer.o(i.GENERAL_TIM_Mode_Config)
    GENERAL_TIM_Mode_Config                  0x080015c7   Thumb Code   172  timer.o(i.GENERAL_TIM_Mode_Config)
    i.GENERAL_TIM_NVIC_Config                0x08001672   Section        0  timer.o(i.GENERAL_TIM_NVIC_Config)
    i.GPIO_Init                              0x080016be   Section        0  stm32f10x_gpio.o(i.GPIO_Init)
    i.GPIO_PinRemapConfig                    0x080017d4   Section        0  stm32f10x_gpio.o(i.GPIO_PinRemapConfig)
    i.GPIO_ReadInputDataBit                  0x08001864   Section        0  stm32f10x_gpio.o(i.GPIO_ReadInputDataBit)
    i.GPIO_ResetBits                         0x08001876   Section        0  stm32f10x_gpio.o(i.GPIO_ResetBits)
    i.GPIO_SetBits                           0x0800187a   Section        0  stm32f10x_gpio.o(i.GPIO_SetBits)
    i.GY_IIC_Ack                             0x08001880   Section        0  hmc5883l.o(i.GY_IIC_Ack)
    i.GY_IIC_Delay                           0x080018b4   Section        0  hmc5883l.o(i.GY_IIC_Delay)
    i.GY_IIC_Init                            0x080018c0   Section        0  hmc5883l.o(i.GY_IIC_Init)
    i.GY_IIC_NAck                            0x0800191c   Section        0  hmc5883l.o(i.GY_IIC_NAck)
    i.GY_IIC_Read_Byte                       0x08001950   Section        0  hmc5883l.o(i.GY_IIC_Read_Byte)
    i.GY_IIC_Send_Byte                       0x080019a4   Section        0  hmc5883l.o(i.GY_IIC_Send_Byte)
    i.GY_IIC_Start                           0x080019ec   Section        0  hmc5883l.o(i.GY_IIC_Start)
    i.GY_IIC_Stop                            0x08001a20   Section        0  hmc5883l.o(i.GY_IIC_Stop)
    i.GY_IIC_Wait_Ack                        0x08001a50   Section        0  hmc5883l.o(i.GY_IIC_Wait_Ack)
    i.GY_SDA_IN                              0x08001a9c   Section        0  hmc5883l.o(i.GY_SDA_IN)
    GY_SDA_IN                                0x08001a9d   Thumb Code    34  hmc5883l.o(i.GY_SDA_IN)
    i.GY_SDA_OUT                             0x08001ac4   Section        0  hmc5883l.o(i.GY_SDA_OUT)
    GY_SDA_OUT                               0x08001ac5   Thumb Code    40  hmc5883l.o(i.GY_SDA_OUT)
    i.HMC5883_Get_Angle                      0x08001af0   Section        0  hmc5883l.o(i.HMC5883_Get_Angle)
    i.HMC5883_Init                           0x08001bac   Section        0  hmc5883l.o(i.HMC5883_Init)
    i.HMC5883_SB_Read                        0x08001d74   Section        0  hmc5883l.o(i.HMC5883_SB_Read)
    i.HMC5883_SB_Write                       0x08001dbc   Section        0  hmc5883l.o(i.HMC5883_SB_Write)
    i.HardFault_Handler                      0x08001e02   Section        0  stm32f10x_it.o(i.HardFault_Handler)
    i.Hardware_Init                          0x08001e08   Section        0  main.o(i.Hardware_Init)
    i.JR6001_Init                            0x08001e90   Section        0  jr6001.o(i.JR6001_Init)
    i.JR6001_SendCode                        0x08001ec0   Section        0  jr6001.o(i.JR6001_SendCode)
    i.JR6001_SongControl                     0x08001f4c   Section        0  jr6001.o(i.JR6001_SongControl)
    i.JR6001_Volumecontrol                   0x08001fc0   Section        0  jr6001.o(i.JR6001_Volumecontrol)
    i.KEY_Scan                               0x08001fe4   Section        0  key.o(i.KEY_Scan)
    i.Key_GPIO_Config                        0x08002058   Section        0  key.o(i.Key_GPIO_Config)
    i.LED_Init                               0x08002094   Section        0  led.o(i.LED_Init)
    i.MemManage_Handler                      0x08002138   Section        0  stm32f10x_it.o(i.MemManage_Handler)
    i.Mqtt_Pub                               0x0800213c   Section        0  ga10.o(i.Mqtt_Pub)
    i.NMI_Handler                            0x080021d0   Section        0  stm32f10x_it.o(i.NMI_Handler)
    i.NVIC_Init                              0x080021d4   Section        0  misc.o(i.NVIC_Init)
    i.NVIC_PriorityGroupConfig               0x08002244   Section        0  misc.o(i.NVIC_PriorityGroupConfig)
    i.Net_Init                               0x08002258   Section        0  main.o(i.Net_Init)
    i.OLED_Clear                             0x080022cc   Section        0  oled.o(i.OLED_Clear)
    i.OLED_ColorTurn                         0x080022d6   Section        0  oled.o(i.OLED_ColorTurn)
    i.OLED_DisplayTurn                       0x080022f2   Section        0  oled.o(i.OLED_DisplayTurn)
    i.OLED_Fill                              0x0800231e   Section        0  oled.o(i.OLED_Fill)
    i.OLED_Init                              0x08002360   Section        0  oled.o(i.OLED_Init)
    i.OLED_ShowCH                            0x08002478   Section        0  oled.o(i.OLED_ShowCH)
    i.OLED_WR_BP                             0x080025b0   Section        0  oled.o(i.OLED_WR_BP)
    i.OLED_WR_Byte                           0x080025dc   Section        0  oled.o(i.OLED_WR_Byte)
    i.PendSV_Handler                         0x0800264c   Section        0  stm32f10x_it.o(i.PendSV_Handler)
    i.RCC_APB1PeriphClockCmd                 0x08002650   Section        0  stm32f10x_rcc.o(i.RCC_APB1PeriphClockCmd)
    i.RCC_APB1PeriphResetCmd                 0x08002670   Section        0  stm32f10x_rcc.o(i.RCC_APB1PeriphResetCmd)
    i.RCC_APB2PeriphClockCmd                 0x08002690   Section        0  stm32f10x_rcc.o(i.RCC_APB2PeriphClockCmd)
    i.RCC_APB2PeriphResetCmd                 0x080026b0   Section        0  stm32f10x_rcc.o(i.RCC_APB2PeriphResetCmd)
    i.RCC_GetClocksFreq                      0x080026d0   Section        0  stm32f10x_rcc.o(i.RCC_GetClocksFreq)
    i.R_Test                                 0x080027a4   Section        0  flash.o(i.R_Test)
    i.Read_Data                              0x080027d0   Section        0  git.o(i.Read_Data)
    i.Reset_Threshole_Value                  0x080027d6   Section        0  git.o(i.Reset_Threshole_Value)
    i.SVC_Handler                            0x080027e8   Section        0  stm32f10x_it.o(i.SVC_Handler)
    i.SetSysClock                            0x080027ea   Section        0  system_stm32f10x.o(i.SetSysClock)
    SetSysClock                              0x080027eb   Thumb Code     8  system_stm32f10x.o(i.SetSysClock)
    i.SetSysClockTo72                        0x080027f4   Section        0  system_stm32f10x.o(i.SetSysClockTo72)
    SetSysClockTo72                          0x080027f5   Thumb Code   214  system_stm32f10x.o(i.SetSysClockTo72)
    i.SoftWare_Init                          0x080028d4   Section        0  main.o(i.SoftWare_Init)
    i.SysTick_CLKSourceConfig                0x0800292c   Section        0  misc.o(i.SysTick_CLKSourceConfig)
    i.SysTick_Handler                        0x08002954   Section        0  stm32f10x_it.o(i.SysTick_Handler)
    i.SystemInit                             0x08002958   Section        0  system_stm32f10x.o(i.SystemInit)
    i.System_PB34_setIO                      0x080029b8   Section        0  led.o(i.System_PB34_setIO)
    i.System_ReadInteriorFlash               0x080029e4   Section        0  flash.o(i.System_ReadInteriorFlash)
    i.System_WriteInteriorFlash              0x08002a24   Section        0  flash.o(i.System_WriteInteriorFlash)
    i.TIM4_IRQHandler                        0x08002ba0   Section        0  timer.o(i.TIM4_IRQHandler)
    i.TIM_ClearFlag                          0x08002c24   Section        0  stm32f10x_tim.o(i.TIM_ClearFlag)
    i.TIM_ClearITPendingBit                  0x08002c2a   Section        0  stm32f10x_tim.o(i.TIM_ClearITPendingBit)
    i.TIM_Cmd                                0x08002c30   Section        0  stm32f10x_tim.o(i.TIM_Cmd)
    i.TIM_GetITStatus                        0x08002c48   Section        0  stm32f10x_tim.o(i.TIM_GetITStatus)
    i.TIM_ITConfig                           0x08002c6a   Section        0  stm32f10x_tim.o(i.TIM_ITConfig)
    i.TIM_TimeBaseInit                       0x08002c7c   Section        0  stm32f10x_tim.o(i.TIM_TimeBaseInit)
    i.TimeModule_get                         0x08002d20   Section        0  timer.o(i.TimeModule_get)
    TimeModule_get                           0x08002d21   Thumb Code    14  timer.o(i.TimeModule_get)
    i.USART1_IRQHandler                      0x08002d34   Section        0  usart.o(i.USART1_IRQHandler)
    i.USART2_IRQHandler                      0x08002dbc   Section        0  usart2.o(i.USART2_IRQHandler)
    i.USART3_IRQHandler                      0x08002e54   Section        0  usart3.o(i.USART3_IRQHandler)
    i.USART_ClearFlag                        0x08002ea0   Section        0  stm32f10x_usart.o(i.USART_ClearFlag)
    i.USART_Cmd                              0x08002eb2   Section        0  stm32f10x_usart.o(i.USART_Cmd)
    i.USART_DeInit                           0x08002ecc   Section        0  stm32f10x_usart.o(i.USART_DeInit)
    i.USART_GetFlagStatus                    0x08002f68   Section        0  stm32f10x_usart.o(i.USART_GetFlagStatus)
    i.USART_GetITStatus                      0x08002f82   Section        0  stm32f10x_usart.o(i.USART_GetITStatus)
    i.USART_ITConfig                         0x08002fd6   Section        0  stm32f10x_usart.o(i.USART_ITConfig)
    i.USART_Init                             0x08003020   Section        0  stm32f10x_usart.o(i.USART_Init)
    i.USART_ReceiveData                      0x080030f8   Section        0  stm32f10x_usart.o(i.USART_ReceiveData)
    i.USART_SendData                         0x08003102   Section        0  stm32f10x_usart.o(i.USART_SendData)
    i.Update_device_massage                  0x0800310c   Section        0  git.o(i.Update_device_massage)
    i.Update_oled_massage                    0x08003170   Section        0  git.o(i.Update_oled_massage)
    i.UsageFault_Handler                     0x080031f0   Section        0  stm32f10x_it.o(i.UsageFault_Handler)
    i.Usart1_Init                            0x080031f4   Section        0  usart.o(i.Usart1_Init)
    i.Usart2_Init                            0x08003294   Section        0  usart2.o(i.Usart2_Init)
    i.Usart3_Init                            0x08003344   Section        0  usart3.o(i.Usart3_Init)
    i.Usart3_SendString                      0x080033f0   Section        0  usart3.o(i.Usart3_SendString)
    i.W_Test                                 0x08003420   Section        0  flash.o(i.W_Test)
    i.__0printf                              0x0800344c   Section        0  printfa.o(i.__0printf)
    i.__0sprintf                             0x0800346c   Section        0  printfa.o(i.__0sprintf)
    i.__ARM_fpclassify                       0x08003494   Section        0  fpclassify.o(i.__ARM_fpclassify)
    i.__free$realloc                         0x080034bc   Section        0  mallocr.o(i.__free$realloc)
    i.__kernel_poly                          0x08003518   Section        0  poly.o(i.__kernel_poly)
    i.__malloc$realloc                       0x080035c4   Section        0  mallocr.o(i.__malloc$realloc)
    i.__mathlib_dbl_infnan                   0x08003614   Section        0  dunder.o(i.__mathlib_dbl_infnan)
    i.__mathlib_dbl_infnan2                  0x0800361a   Section        0  dunder.o(i.__mathlib_dbl_infnan2)
    i.__mathlib_dbl_underflow                0x08003620   Section        0  dunder.o(i.__mathlib_dbl_underflow)
    i.__scatterload_copy                     0x08003630   Section       14  handlers.o(i.__scatterload_copy)
    i.__scatterload_null                     0x0800363e   Section        2  handlers.o(i.__scatterload_null)
    i.__scatterload_zeroinit                 0x08003640   Section       14  handlers.o(i.__scatterload_zeroinit)
    i.__set_errno                            0x08003650   Section        0  errno.o(i.__set_errno)
    i._fp_digits                             0x0800365c   Section        0  printfa.o(i._fp_digits)
    _fp_digits                               0x0800365d   Thumb Code   366  printfa.o(i._fp_digits)
    i._is_digit                              0x080037e0   Section        0  scanf_fp.o(i._is_digit)
    i._printf_core                           0x080037f0   Section        0  printfa.o(i._printf_core)
    _printf_core                             0x080037f1   Thumb Code  1704  printfa.o(i._printf_core)
    i._printf_post_padding                   0x08003ea4   Section        0  printfa.o(i._printf_post_padding)
    _printf_post_padding                     0x08003ea5   Thumb Code    36  printfa.o(i._printf_post_padding)
    i._printf_pre_padding                    0x08003ec8   Section        0  printfa.o(i._printf_pre_padding)
    _printf_pre_padding                      0x08003ec9   Thumb Code    46  printfa.o(i._printf_pre_padding)
    i._sputc                                 0x08003ef6   Section        0  printfa.o(i._sputc)
    _sputc                                   0x08003ef7   Thumb Code    10  printfa.o(i._sputc)
    i.atan                                   0x08003f00   Section        0  atan.o(i.atan)
    i.atan2                                  0x08004120   Section        0  atan2.o(i.atan2)
    i.buffer_skip_whitespace                 0x080042bc   Section        0  cjson.o(i.buffer_skip_whitespace)
    buffer_skip_whitespace                   0x080042bd   Thumb Code    72  cjson.o(i.buffer_skip_whitespace)
    i.cJSON_Delete                           0x08004304   Section        0  cjson.o(i.cJSON_Delete)
    i.cJSON_GetObjectItem                    0x0800435c   Section        0  cjson.o(i.cJSON_GetObjectItem)
    i.cJSON_New_Item                         0x0800436e   Section        0  cjson.o(i.cJSON_New_Item)
    cJSON_New_Item                           0x0800436f   Thumb Code    26  cjson.o(i.cJSON_New_Item)
    i.cJSON_Parse                            0x08004388   Section        0  cjson.o(i.cJSON_Parse)
    i.cJSON_ParseWithLengthOpts              0x08004398   Section        0  cjson.o(i.cJSON_ParseWithLengthOpts)
    i.cJSON_ParseWithOpts                    0x0800446c   Section        0  cjson.o(i.cJSON_ParseWithOpts)
    i.case_insensitive_strcmp                0x08004494   Section        0  cjson.o(i.case_insensitive_strcmp)
    case_insensitive_strcmp                  0x08004495   Thumb Code    72  cjson.o(i.case_insensitive_strcmp)
    i.delay_init                             0x080044dc   Section        0  delay.o(i.delay_init)
    i.delay_ms                               0x08004520   Section        0  delay.o(i.delay_ms)
    i.delay_us                               0x0800456c   Section        0  delay.o(i.delay_us)
    i.fputc                                  0x080045b8   Section        0  usart.o(i.fputc)
    i.get_decimal_point                      0x080045d4   Section        0  cjson.o(i.get_decimal_point)
    get_decimal_point                        0x080045d5   Thumb Code     4  cjson.o(i.get_decimal_point)
    i.get_object_item                        0x080045d8   Section        0  cjson.o(i.get_object_item)
    get_object_item                          0x080045d9   Thumb Code    82  cjson.o(i.get_object_item)
    i.internal_alloc                         0x0800462c   Section        0  mallocr.o(i.internal_alloc)
    internal_alloc                           0x0800462d   Thumb Code    76  mallocr.o(i.internal_alloc)
    i.main                                   0x0800467c   Section        0  main.o(i.main)
    i.massage_ga10_json                      0x080046c4   Section        0  ga10.o(i.massage_ga10_json)
    i.parse_array                            0x08004764   Section        0  cjson.o(i.parse_array)
    parse_array                              0x08004765   Thumb Code   248  cjson.o(i.parse_array)
    i.parse_hex4                             0x0800485c   Section        0  cjson.o(i.parse_hex4)
    parse_hex4                               0x0800485d   Thumb Code    90  cjson.o(i.parse_hex4)
    i.parse_number                           0x080048b8   Section        0  cjson.o(i.parse_number)
    parse_number                             0x080048b9   Thumb Code   298  cjson.o(i.parse_number)
    i.parse_object                           0x080049f0   Section        0  cjson.o(i.parse_object)
    parse_object                             0x080049f1   Thumb Code   318  cjson.o(i.parse_object)
    i.parse_string                           0x08004b2e   Section        0  cjson.o(i.parse_string)
    parse_string                             0x08004b2f   Thumb Code   396  cjson.o(i.parse_string)
    i.parse_value                            0x08004cbc   Section        0  cjson.o(i.parse_value)
    parse_value                              0x08004cbd   Thumb Code   290  cjson.o(i.parse_value)
    i.realloc                                0x08004df8   Section        0  mallocr.o(i.realloc)
    i.skip_utf8_bom                          0x08004e64   Section        0  cjson.o(i.skip_utf8_bom)
    skip_utf8_bom                            0x08004e65   Thumb Code    56  cjson.o(i.skip_utf8_bom)
    i.strtod                                 0x08004ea0   Section        0  strtod.o(i.strtod)
    i.task1                                  0x08004ebc   Section        0  main.o(i.task1)
    i.task2                                  0x08004ec8   Section        0  main.o(i.task2)
    i.task3                                  0x08004ef0   Section        0  main.o(i.task3)
    i.timer_init                             0x08004f04   Section        0  task.o(i.timer_init)
    i.timer_loop                             0x08004f24   Section        0  task.o(i.timer_loop)
    i.timer_start                            0x08004f64   Section        0  task.o(i.timer_start)
    i.timer_stop                             0x08004f90   Section        0  task.o(i.timer_stop)
    i.timer_ticks                            0x08004fb4   Section        0  task.o(i.timer_ticks)
    i.utf16_literal_to_utf8                  0x08004fc4   Section        0  cjson.o(i.utf16_literal_to_utf8)
    utf16_literal_to_utf8                    0x08004fc5   Thumb Code   300  cjson.o(i.utf16_literal_to_utf8)
    i.waitForFlashBSY                        0x080050f0   Section        0  flash.o(i.waitForFlashBSY)
    waitForFlashBSY                          0x080050f1   Thumb Code    32  flash.o(i.waitForFlashBSY)
    .constdata                               0x08005118   Section      152  atan.o(.constdata)
    atanhi                                   0x08005118   Data          32  atan.o(.constdata)
    atanlo                                   0x08005138   Data          32  atan.o(.constdata)
    aTodd                                    0x08005158   Data          40  atan.o(.constdata)
    aTeven                                   0x08005180   Data          48  atan.o(.constdata)
    .constdata                               0x080051b0   Section        8  qnan.o(.constdata)
    .constdata                               0x080051b8   Section       64  ctype_c.o(.constdata)
    .conststring                             0x080051f8   Section       29  main.o(.conststring)
    .conststring                             0x08005218   Section       81  hmc5883l.o(.conststring)
    .data                                    0x20000000   Section        8  main.o(.data)
    .data                                    0x20000008   Section       20  system_stm32f10x.o(.data)
    .data                                    0x2000001c   Section        1  key.o(.data)
    key_up                                   0x2000001c   Data           1  key.o(.data)
    .data                                    0x20000020   Section     2472  oled.o(.data)
    .data                                    0x200009c8   Section        8  flash.o(.data)
    .data                                    0x200009d0   Section        6  usart2.o(.data)
    .data                                    0x200009d6   Section        2  hmc5883l.o(.data)
    Res_Data                                 0x200009d7   Data           1  hmc5883l.o(.data)
    .data                                    0x200009d8   Section        4  delay.o(.data)
    fac_us                                   0x200009d8   Data           1  delay.o(.data)
    fac_ms                                   0x200009da   Data           2  delay.o(.data)
    .data                                    0x200009dc   Section        6  usart.o(.data)
    .data                                    0x200009e2   Section       20  stm32f10x_rcc.o(.data)
    APBAHBPrescTable                         0x200009e2   Data          16  stm32f10x_rcc.o(.data)
    ADCPrescTable                            0x200009f2   Data           4  stm32f10x_rcc.o(.data)
    .data                                    0x200009f8   Section       20  cjson.o(.data)
    global_error                             0x200009f8   Data           8  cjson.o(.data)
    global_hooks                             0x20000a00   Data          12  cjson.o(.data)
    .data                                    0x20000a0c   Section        4  usart3.o(.data)
    .data                                    0x20000a10   Section       10  git.o(.data)
    num_on                                   0x20000a18   Data           1  git.o(.data)
    key_old                                  0x20000a19   Data           1  git.o(.data)
    .data                                    0x20000a1c   Section        8  task.o(.data)
    head_handle                              0x20000a1c   Data           4  task.o(.data)
    _timer_ticks                             0x20000a20   Data           4  task.o(.data)
    .data                                    0x20000a24   Section       13  timer.o(.data)
    .data                                    0x20000a34   Section        4  mvars.o(.data)
    .data                                    0x20000a38   Section        4  mvars.o(.data)
    .data                                    0x20000a3c   Section        4  errno.o(.data)
    _errno                                   0x20000a3c   Data           4  errno.o(.data)
    .bss                                     0x20000a40   Section     2096  main.o(.bss)
    sectorbufferTemp                         0x20000a40   Data        2048  main.o(.bss)
    task1_id                                 0x20001240   Data          16  main.o(.bss)
    task2_id                                 0x20001250   Data          16  main.o(.bss)
    task3_id                                 0x20001260   Data          16  main.o(.bss)
    .bss                                     0x20001270   Section     2048  flash.o(.bss)
    sectorbufferTemp                         0x20001270   Data        2048  flash.o(.bss)
    .bss                                     0x20001a70   Section      321  usart2.o(.bss)
    .bss                                     0x20001bb4   Section       12  hmc5883l.o(.bss)
    .bss                                     0x20001bc0   Section      200  usart.o(.bss)
    .bss                                     0x20001c88   Section     2304  usart3.o(.bss)
    sectorbufferTemp                         0x20001c88   Data        2048  usart3.o(.bss)
    .bss                                     0x20002588   Section     2081  git.o(.bss)
    sectorbufferTemp                         0x20002588   Data        2048  git.o(.bss)
    HEAP                                     0x20002db0   Section     3072  startup_stm32f10x_hd.o(HEAP)
    STACK                                    0x200039b0   Section     1024  startup_stm32f10x_hd.o(STACK)

    Global Symbols

    Symbol Name                              Value     Ov Type        Size  Object(Section)

    BuildAttributes$$THM_ISAv4$P$D$K$B$S$PE$A:L22UL41UL21$X:L11$S22US41US21$IEEE1$IW$USESV6$~STKCKD$USESV7$~SHL$OTIME$ROPI$IEEEX$EBA8$MICROLIB$REQ8$PRES8$EABIv2 0x00000000   Number         0  anon$$obj.o ABSOLUTE
    __ARM_use_no_argv                        0x00000000   Number         0  main.o ABSOLUTE
    __use_no_errno                           0x00000000   Number         0  useno.o ABSOLUTE
    __use_no_exception_handling              0x00000000   Number         0  useno.o ABSOLUTE
    __use_no_fp                              0x00000000   Number         0  useno.o ABSOLUTE
    __use_no_heap                            0x00000000   Number         0  useno.o ABSOLUTE
    __use_no_heap_region                     0x00000000   Number         0  useno.o ABSOLUTE
    __use_no_semihosting                     0x00000000   Number         0  useno.o ABSOLUTE
    __use_no_semihosting_swi                 0x00000000   Number         0  useno.o ABSOLUTE
    __use_no_signal_handling                 0x00000000   Number         0  useno.o ABSOLUTE
    _printf_a                                0x00000000   Number         0  stubs.o ABSOLUTE
    _printf_c                                0x00000000   Number         0  stubs.o ABSOLUTE
    _printf_charcount                        0x00000000   Number         0  stubs.o ABSOLUTE
    _printf_d                                0x00000000   Number         0  stubs.o ABSOLUTE
    _printf_e                                0x00000000   Number         0  stubs.o ABSOLUTE
    _printf_f                                0x00000000   Number         0  stubs.o ABSOLUTE
    _printf_flags                            0x00000000   Number         0  stubs.o ABSOLUTE
    _printf_fp_dec                           0x00000000   Number         0  stubs.o ABSOLUTE
    _printf_fp_hex                           0x00000000   Number         0  stubs.o ABSOLUTE
    _printf_g                                0x00000000   Number         0  stubs.o ABSOLUTE
    _printf_i                                0x00000000   Number         0  stubs.o ABSOLUTE
    _printf_int_dec                          0x00000000   Number         0  stubs.o ABSOLUTE
    _printf_l                                0x00000000   Number         0  stubs.o ABSOLUTE
    _printf_lc                               0x00000000   Number         0  stubs.o ABSOLUTE
    _printf_ll                               0x00000000   Number         0  stubs.o ABSOLUTE
    _printf_lld                              0x00000000   Number         0  stubs.o ABSOLUTE
    _printf_lli                              0x00000000   Number         0  stubs.o ABSOLUTE
    _printf_llo                              0x00000000   Number         0  stubs.o ABSOLUTE
    _printf_llu                              0x00000000   Number         0  stubs.o ABSOLUTE
    _printf_llx                              0x00000000   Number         0  stubs.o ABSOLUTE
    _printf_longlong_dec                     0x00000000   Number         0  stubs.o ABSOLUTE
    _printf_longlong_hex                     0x00000000   Number         0  stubs.o ABSOLUTE
    _printf_longlong_oct                     0x00000000   Number         0  stubs.o ABSOLUTE
    _printf_ls                               0x00000000   Number         0  stubs.o ABSOLUTE
    _printf_mbtowc                           0x00000000   Number         0  stubs.o ABSOLUTE
    _printf_n                                0x00000000   Number         0  stubs.o ABSOLUTE
    _printf_o                                0x00000000   Number         0  stubs.o ABSOLUTE
    _printf_p                                0x00000000   Number         0  stubs.o ABSOLUTE
    _printf_percent                          0x00000000   Number         0  stubs.o ABSOLUTE
    _printf_pre_padding                      0x00000000   Number         0  stubs.o ABSOLUTE
    _printf_return_value                     0x00000000   Number         0  stubs.o ABSOLUTE
    _printf_s                                0x00000000   Number         0  stubs.o ABSOLUTE
    _printf_sizespec                         0x00000000   Number         0  stubs.o ABSOLUTE
    _printf_str                              0x00000000   Number         0  stubs.o ABSOLUTE
    _printf_truncate_signed                  0x00000000   Number         0  stubs.o ABSOLUTE
    _printf_truncate_unsigned                0x00000000   Number         0  stubs.o ABSOLUTE
    _printf_u                                0x00000000   Number         0  stubs.o ABSOLUTE
    _printf_wc                               0x00000000   Number         0  stubs.o ABSOLUTE
    _printf_wctomb                           0x00000000   Number         0  stubs.o ABSOLUTE
    _printf_widthprec                        0x00000000   Number         0  stubs.o ABSOLUTE
    _printf_x                                0x00000000   Number         0  stubs.o ABSOLUTE
    __arm_fini_                               - Undefined Weak Reference
    __cpp_initialize__aeabi_                  - Undefined Weak Reference
    __cxa_finalize                            - Undefined Weak Reference
    _clock_init                               - Undefined Weak Reference
    _microlib_exit                            - Undefined Weak Reference
    _scanf_int                                - Undefined Weak Reference
    _scanf_longlong                           - Undefined Weak Reference
    _scanf_string                             - Undefined Weak Reference
    __Vectors_Size                           0x00000130   Number         0  startup_stm32f10x_hd.o ABSOLUTE
    __Vectors                                0x08000000   Data           4  startup_stm32f10x_hd.o(RESET)
    __Vectors_End                            0x08000130   Data           0  startup_stm32f10x_hd.o(RESET)
    __main                                   0x08000131   Thumb Code     0  entry.o(.ARM.Collect$$$$00000000)
    _main_stk                                0x08000131   Thumb Code     0  entry2.o(.ARM.Collect$$$$00000001)
    _main_scatterload                        0x08000135   Thumb Code     0  entry5.o(.ARM.Collect$$$$00000004)
    __main_after_scatterload                 0x08000139   Thumb Code     0  entry5.o(.ARM.Collect$$$$00000004)
    _main_clock                              0x08000139   Thumb Code     0  entry7b.o(.ARM.Collect$$$$00000008)
    _main_cpp_init                           0x08000139   Thumb Code     0  entry8b.o(.ARM.Collect$$$$0000000A)
    _main_init                               0x08000139   Thumb Code     0  entry9a.o(.ARM.Collect$$$$0000000B)
    __rt_lib_shutdown_fini                   0x08000141   Thumb Code     0  entry12b.o(.ARM.Collect$$$$0000000E)
    __rt_final_cpp                           0x08000145   Thumb Code     0  entry10a.o(.ARM.Collect$$$$0000000F)
    __rt_final_exit                          0x08000145   Thumb Code     0  entry11a.o(.ARM.Collect$$$$00000011)
    Reset_Handler                            0x08000149   Thumb Code     8  startup_stm32f10x_hd.o(.text)
    ADC1_2_IRQHandler                        0x08000163   Thumb Code     0  startup_stm32f10x_hd.o(.text)
    ADC3_IRQHandler                          0x08000163   Thumb Code     0  startup_stm32f10x_hd.o(.text)
    CAN1_RX1_IRQHandler                      0x08000163   Thumb Code     0  startup_stm32f10x_hd.o(.text)
    CAN1_SCE_IRQHandler                      0x08000163   Thumb Code     0  startup_stm32f10x_hd.o(.text)
    DMA1_Channel1_IRQHandler                 0x08000163   Thumb Code     0  startup_stm32f10x_hd.o(.text)
    DMA1_Channel2_IRQHandler                 0x08000163   Thumb Code     0  startup_stm32f10x_hd.o(.text)
    DMA1_Channel3_IRQHandler                 0x08000163   Thumb Code     0  startup_stm32f10x_hd.o(.text)
    DMA1_Channel4_IRQHandler                 0x08000163   Thumb Code     0  startup_stm32f10x_hd.o(.text)
    DMA1_Channel5_IRQHandler                 0x08000163   Thumb Code     0  startup_stm32f10x_hd.o(.text)
    DMA1_Channel6_IRQHandler                 0x08000163   Thumb Code     0  startup_stm32f10x_hd.o(.text)
    DMA1_Channel7_IRQHandler                 0x08000163   Thumb Code     0  startup_stm32f10x_hd.o(.text)
    DMA2_Channel1_IRQHandler                 0x08000163   Thumb Code     0  startup_stm32f10x_hd.o(.text)
    DMA2_Channel2_IRQHandler                 0x08000163   Thumb Code     0  startup_stm32f10x_hd.o(.text)
    DMA2_Channel3_IRQHandler                 0x08000163   Thumb Code     0  startup_stm32f10x_hd.o(.text)
    DMA2_Channel4_5_IRQHandler               0x08000163   Thumb Code     0  startup_stm32f10x_hd.o(.text)
    EXTI0_IRQHandler                         0x08000163   Thumb Code     0  startup_stm32f10x_hd.o(.text)
    EXTI15_10_IRQHandler                     0x08000163   Thumb Code     0  startup_stm32f10x_hd.o(.text)
    EXTI1_IRQHandler                         0x08000163   Thumb Code     0  startup_stm32f10x_hd.o(.text)
    EXTI2_IRQHandler                         0x08000163   Thumb Code     0  startup_stm32f10x_hd.o(.text)
    EXTI3_IRQHandler                         0x08000163   Thumb Code     0  startup_stm32f10x_hd.o(.text)
    EXTI4_IRQHandler                         0x08000163   Thumb Code     0  startup_stm32f10x_hd.o(.text)
    EXTI9_5_IRQHandler                       0x08000163   Thumb Code     0  startup_stm32f10x_hd.o(.text)
    FLASH_IRQHandler                         0x08000163   Thumb Code     0  startup_stm32f10x_hd.o(.text)
    FSMC_IRQHandler                          0x08000163   Thumb Code     0  startup_stm32f10x_hd.o(.text)
    I2C1_ER_IRQHandler                       0x08000163   Thumb Code     0  startup_stm32f10x_hd.o(.text)
    I2C1_EV_IRQHandler                       0x08000163   Thumb Code     0  startup_stm32f10x_hd.o(.text)
    I2C2_ER_IRQHandler                       0x08000163   Thumb Code     0  startup_stm32f10x_hd.o(.text)
    I2C2_EV_IRQHandler                       0x08000163   Thumb Code     0  startup_stm32f10x_hd.o(.text)
    PVD_IRQHandler                           0x08000163   Thumb Code     0  startup_stm32f10x_hd.o(.text)
    RCC_IRQHandler                           0x08000163   Thumb Code     0  startup_stm32f10x_hd.o(.text)
    RTCAlarm_IRQHandler                      0x08000163   Thumb Code     0  startup_stm32f10x_hd.o(.text)
    RTC_IRQHandler                           0x08000163   Thumb Code     0  startup_stm32f10x_hd.o(.text)
    SDIO_IRQHandler                          0x08000163   Thumb Code     0  startup_stm32f10x_hd.o(.text)
    SPI1_IRQHandler                          0x08000163   Thumb Code     0  startup_stm32f10x_hd.o(.text)
    SPI2_IRQHandler                          0x08000163   Thumb Code     0  startup_stm32f10x_hd.o(.text)
    SPI3_IRQHandler                          0x08000163   Thumb Code     0  startup_stm32f10x_hd.o(.text)
    TAMPER_IRQHandler                        0x08000163   Thumb Code     0  startup_stm32f10x_hd.o(.text)
    TIM1_BRK_IRQHandler                      0x08000163   Thumb Code     0  startup_stm32f10x_hd.o(.text)
    TIM1_CC_IRQHandler                       0x08000163   Thumb Code     0  startup_stm32f10x_hd.o(.text)
    TIM1_TRG_COM_IRQHandler                  0x08000163   Thumb Code     0  startup_stm32f10x_hd.o(.text)
    TIM1_UP_IRQHandler                       0x08000163   Thumb Code     0  startup_stm32f10x_hd.o(.text)
    TIM2_IRQHandler                          0x08000163   Thumb Code     0  startup_stm32f10x_hd.o(.text)
    TIM3_IRQHandler                          0x08000163   Thumb Code     0  startup_stm32f10x_hd.o(.text)
    TIM5_IRQHandler                          0x08000163   Thumb Code     0  startup_stm32f10x_hd.o(.text)
    TIM6_IRQHandler                          0x08000163   Thumb Code     0  startup_stm32f10x_hd.o(.text)
    TIM7_IRQHandler                          0x08000163   Thumb Code     0  startup_stm32f10x_hd.o(.text)
    TIM8_BRK_IRQHandler                      0x08000163   Thumb Code     0  startup_stm32f10x_hd.o(.text)
    TIM8_CC_IRQHandler                       0x08000163   Thumb Code     0  startup_stm32f10x_hd.o(.text)
    TIM8_TRG_COM_IRQHandler                  0x08000163   Thumb Code     0  startup_stm32f10x_hd.o(.text)
    TIM8_UP_IRQHandler                       0x08000163   Thumb Code     0  startup_stm32f10x_hd.o(.text)
    UART4_IRQHandler                         0x08000163   Thumb Code     0  startup_stm32f10x_hd.o(.text)
    UART5_IRQHandler                         0x08000163   Thumb Code     0  startup_stm32f10x_hd.o(.text)
    USBWakeUp_IRQHandler                     0x08000163   Thumb Code     0  startup_stm32f10x_hd.o(.text)
    USB_HP_CAN1_TX_IRQHandler                0x08000163   Thumb Code     0  startup_stm32f10x_hd.o(.text)
    USB_LP_CAN1_RX0_IRQHandler               0x08000163   Thumb Code     0  startup_stm32f10x_hd.o(.text)
    WWDG_IRQHandler                          0x08000163   Thumb Code     0  startup_stm32f10x_hd.o(.text)
    tolower                                  0x0800016d   Thumb Code    12  tolower.o(.text)
    __aeabi_memcpy                           0x08000179   Thumb Code    36  memcpya.o(.text)
    __aeabi_memcpy4                          0x08000179   Thumb Code     0  memcpya.o(.text)
    __aeabi_memcpy8                          0x08000179   Thumb Code     0  memcpya.o(.text)
    __aeabi_memset                           0x0800019d   Thumb Code    14  memseta.o(.text)
    __aeabi_memset4                          0x0800019d   Thumb Code     0  memseta.o(.text)
    __aeabi_memset8                          0x0800019d   Thumb Code     0  memseta.o(.text)
    __aeabi_memclr                           0x080001ab   Thumb Code     4  memseta.o(.text)
    __aeabi_memclr4                          0x080001ab   Thumb Code     0  memseta.o(.text)
    __aeabi_memclr8                          0x080001ab   Thumb Code     0  memseta.o(.text)
    _memset$wrapper                          0x080001af   Thumb Code    18  memseta.o(.text)
    strcat                                   0x080001c1   Thumb Code    24  strcat.o(.text)
    strstr                                   0x080001d9   Thumb Code    36  strstr.o(.text)
    strchr                                   0x080001fd   Thumb Code    20  strchr.o(.text)
    strlen                                   0x08000211   Thumb Code    14  strlen.o(.text)
    strcmp                                   0x0800021f   Thumb Code    28  strcmp.o(.text)
    strncmp                                  0x0800023b   Thumb Code    30  strncmp.o(.text)
    _scanf_real                              0x08000381   Thumb Code     0  scanf_fp.o(.text)
    _scanf_really_real                       0x08000381   Thumb Code   556  scanf_fp.o(.text)
    __aeabi_dadd                             0x080005b9   Thumb Code   322  dadd.o(.text)
    __aeabi_dsub                             0x080006fb   Thumb Code     6  dadd.o(.text)
    __aeabi_drsub                            0x08000701   Thumb Code     6  dadd.o(.text)
    __aeabi_dmul                             0x08000707   Thumb Code   228  dmul.o(.text)
    __aeabi_i2d                              0x080007eb   Thumb Code    34  dflti.o(.text)
    __aeabi_d2iz                             0x0800080d   Thumb Code    62  dfixi.o(.text)
    __aeabi_cdcmpeq                          0x0800084d   Thumb Code     0  cdcmple.o(.text)
    __aeabi_cdcmple                          0x0800084d   Thumb Code    48  cdcmple.o(.text)
    __aeabi_cdrcmple                         0x0800087d   Thumb Code    48  cdrcmple.o(.text)
    __aeabi_d2f                              0x080008ad   Thumb Code    56  d2f.o(.text)
    __aeabi_uidiv                            0x080008e5   Thumb Code     0  uidiv.o(.text)
    __aeabi_uidivmod                         0x080008e5   Thumb Code    44  uidiv.o(.text)
    __aeabi_uldivmod                         0x08000911   Thumb Code    98  uldiv.o(.text)
    __aeabi_llsl                             0x08000973   Thumb Code    30  llshl.o(.text)
    _ll_shift_l                              0x08000973   Thumb Code     0  llshl.o(.text)
    __aeabi_llsr                             0x08000991   Thumb Code    32  llushr.o(.text)
    _ll_ushift_r                             0x08000991   Thumb Code     0  llushr.o(.text)
    __aeabi_lasr                             0x080009b1   Thumb Code    36  llsshr.o(.text)
    _ll_sshift_r                             0x080009b1   Thumb Code     0  llsshr.o(.text)
    _sgetc                                   0x080009d5   Thumb Code    30  _sgetc.o(.text)
    _sbackspace                              0x080009f3   Thumb Code    34  _sgetc.o(.text)
    __strtod_int                             0x08000a4b   Thumb Code    90  strtod.o(.text)
    __I$use$fp                               0x08000ab1   Thumb Code     0  iusefp.o(.text)
    _float_round                             0x08000ab1   Thumb Code    18  fepilogue.o(.text)
    _float_epilogue                          0x08000ac3   Thumb Code    92  fepilogue.o(.text)
    _double_round                            0x08000b1f   Thumb Code    30  depilogue.o(.text)
    _double_epilogue                         0x08000b3d   Thumb Code   156  depilogue.o(.text)
    __aeabi_ddiv                             0x08000bd9   Thumb Code   222  ddiv.o(.text)
    __aeabi_ul2d                             0x08000cb7   Thumb Code    24  dfltul.o(.text)
    __aeabi_d2ulz                            0x08000ccf   Thumb Code    48  dfixul.o(.text)
    __scatterload                            0x08000d01   Thumb Code    28  init.o(.text)
    __scatterload_rt2                        0x08000d01   Thumb Code     0  init.o(.text)
    isspace                                  0x08000d25   Thumb Code    10  isspace_c.o(.text)
    __ARM_scalbn                             0x08000d2f   Thumb Code    46  dscalb.o(.text)
    scalbn                                   0x08000d2f   Thumb Code     0  dscalb.o(.text)
    __ctype_lookup                           0x08000d5d   Thumb Code    34  ctype_c.o(.text)
    __decompress                             0x08000d85   Thumb Code     0  __dczerorl2.o(.text)
    __decompress1                            0x08000d85   Thumb Code    86  __dczerorl2.o(.text)
    Automation_Close                         0x08000ddd   Thumb Code   340  git.o(i.Automation_Close)
    BusFault_Handler                         0x08000f39   Thumb Code     4  stm32f10x_it.o(i.BusFault_Handler)
    CLR_Buf                                  0x08000f3d   Thumb Code    18  usart2.o(i.CLR_Buf)
    Check_Key_ON_OFF                         0x08000f59   Thumb Code   204  git.o(i.Check_Key_ON_OFF)
    DebugMon_Handler                         0x08001065   Thumb Code     2  stm32f10x_it.o(i.DebugMon_Handler)
    ESP8266_Clear                            0x08001069   Thumb Code    20  usart3.o(i.ESP8266_Clear)
    ESP8266_GetIPD                           0x08001085   Thumb Code    66  usart3.o(i.ESP8266_GetIPD)
    ESP8266_WaitRecive                       0x080010d5   Thumb Code    42  usart3.o(i.ESP8266_WaitRecive)
    FillBuf                                  0x08001109   Thumb Code   180  ga10.o(i.FillBuf)
    GA10_Init                                0x08001209   Thumb Code   312  ga10.o(i.GA10_Init)
    GA10_SendCmd                             0x080014d1   Thumb Code    92  ga10.o(i.GA10_SendCmd)
    GB16_NUM                                 0x0800153d   Thumb Code    18  oled.o(i.GB16_NUM)
    GENERAL_TIM_Init                         0x080015a7   Thumb Code    32  timer.o(i.GENERAL_TIM_Init)
    GENERAL_TIM_NVIC_Config                  0x08001673   Thumb Code    76  timer.o(i.GENERAL_TIM_NVIC_Config)
    GPIO_Init                                0x080016bf   Thumb Code   278  stm32f10x_gpio.o(i.GPIO_Init)
    GPIO_PinRemapConfig                      0x080017d5   Thumb Code   138  stm32f10x_gpio.o(i.GPIO_PinRemapConfig)
    GPIO_ReadInputDataBit                    0x08001865   Thumb Code    18  stm32f10x_gpio.o(i.GPIO_ReadInputDataBit)
    GPIO_ResetBits                           0x08001877   Thumb Code     4  stm32f10x_gpio.o(i.GPIO_ResetBits)
    GPIO_SetBits                             0x0800187b   Thumb Code     4  stm32f10x_gpio.o(i.GPIO_SetBits)
    GY_IIC_Ack                               0x08001881   Thumb Code    44  hmc5883l.o(i.GY_IIC_Ack)
    GY_IIC_Delay                             0x080018b5   Thumb Code    10  hmc5883l.o(i.GY_IIC_Delay)
    GY_IIC_Init                              0x080018c1   Thumb Code    80  hmc5883l.o(i.GY_IIC_Init)
    GY_IIC_NAck                              0x0800191d   Thumb Code    44  hmc5883l.o(i.GY_IIC_NAck)
    GY_IIC_Read_Byte                         0x08001951   Thumb Code    76  hmc5883l.o(i.GY_IIC_Read_Byte)
    GY_IIC_Send_Byte                         0x080019a5   Thumb Code    62  hmc5883l.o(i.GY_IIC_Send_Byte)
    GY_IIC_Start                             0x080019ed   Thumb Code    42  hmc5883l.o(i.GY_IIC_Start)
    GY_IIC_Stop                              0x08001a21   Thumb Code    40  hmc5883l.o(i.GY_IIC_Stop)
    GY_IIC_Wait_Ack                          0x08001a51   Thumb Code    68  hmc5883l.o(i.GY_IIC_Wait_Ack)
    HMC5883_Get_Angle                        0x08001af1   Thumb Code   170  hmc5883l.o(i.HMC5883_Get_Angle)
    HMC5883_Init                             0x08001bad   Thumb Code   392  hmc5883l.o(i.HMC5883_Init)
    HMC5883_SB_Read                          0x08001d75   Thumb Code    66  hmc5883l.o(i.HMC5883_SB_Read)
    HMC5883_SB_Write                         0x08001dbd   Thumb Code    70  hmc5883l.o(i.HMC5883_SB_Write)
    HardFault_Handler                        0x08001e03   Thumb Code     4  stm32f10x_it.o(i.HardFault_Handler)
    Hardware_Init                            0x08001e09   Thumb Code   122  main.o(i.Hardware_Init)
    JR6001_Init                              0x08001e91   Thumb Code    48  jr6001.o(i.JR6001_Init)
    JR6001_SendCode                          0x08001ec1   Thumb Code   128  jr6001.o(i.JR6001_SendCode)
    JR6001_SongControl                       0x08001f4d   Thumb Code    78  jr6001.o(i.JR6001_SongControl)
    JR6001_Volumecontrol                     0x08001fc1   Thumb Code    28  jr6001.o(i.JR6001_Volumecontrol)
    KEY_Scan                                 0x08001fe5   Thumb Code   108  key.o(i.KEY_Scan)
    Key_GPIO_Config                          0x08002059   Thumb Code    54  key.o(i.Key_GPIO_Config)
    LED_Init                                 0x08002095   Thumb Code   154  led.o(i.LED_Init)
    MemManage_Handler                        0x08002139   Thumb Code     4  stm32f10x_it.o(i.MemManage_Handler)
    Mqtt_Pub                                 0x0800213d   Thumb Code    84  ga10.o(i.Mqtt_Pub)
    NMI_Handler                              0x080021d1   Thumb Code     2  stm32f10x_it.o(i.NMI_Handler)
    NVIC_Init                                0x080021d5   Thumb Code   100  misc.o(i.NVIC_Init)
    NVIC_PriorityGroupConfig                 0x08002245   Thumb Code    10  misc.o(i.NVIC_PriorityGroupConfig)
    Net_Init                                 0x08002259   Thumb Code    80  main.o(i.Net_Init)
    OLED_Clear                               0x080022cd   Thumb Code    10  oled.o(i.OLED_Clear)
    OLED_ColorTurn                           0x080022d7   Thumb Code    28  oled.o(i.OLED_ColorTurn)
    OLED_DisplayTurn                         0x080022f3   Thumb Code    44  oled.o(i.OLED_DisplayTurn)
    OLED_Fill                                0x0800231f   Thumb Code    66  oled.o(i.OLED_Fill)
    OLED_Init                                0x08002361   Thumb Code   274  oled.o(i.OLED_Init)
    OLED_ShowCH                              0x08002479   Thumb Code   292  oled.o(i.OLED_ShowCH)
    OLED_WR_BP                               0x080025b1   Thumb Code    42  oled.o(i.OLED_WR_BP)
    OLED_WR_Byte                             0x080025dd   Thumb Code   108  oled.o(i.OLED_WR_Byte)
    PendSV_Handler                           0x0800264d   Thumb Code     2  stm32f10x_it.o(i.PendSV_Handler)
    RCC_APB1PeriphClockCmd                   0x08002651   Thumb Code    26  stm32f10x_rcc.o(i.RCC_APB1PeriphClockCmd)
    RCC_APB1PeriphResetCmd                   0x08002671   Thumb Code    26  stm32f10x_rcc.o(i.RCC_APB1PeriphResetCmd)
    RCC_APB2PeriphClockCmd                   0x08002691   Thumb Code    26  stm32f10x_rcc.o(i.RCC_APB2PeriphClockCmd)
    RCC_APB2PeriphResetCmd                   0x080026b1   Thumb Code    26  stm32f10x_rcc.o(i.RCC_APB2PeriphResetCmd)
    RCC_GetClocksFreq                        0x080026d1   Thumb Code   192  stm32f10x_rcc.o(i.RCC_GetClocksFreq)
    R_Test                                   0x080027a5   Thumb Code    30  flash.o(i.R_Test)
    Read_Data                                0x080027d1   Thumb Code     6  git.o(i.Read_Data)
    Reset_Threshole_Value                    0x080027d7   Thumb Code    18  git.o(i.Reset_Threshole_Value)
    SVC_Handler                              0x080027e9   Thumb Code     2  stm32f10x_it.o(i.SVC_Handler)
    SoftWare_Init                            0x080028d5   Thumb Code    64  main.o(i.SoftWare_Init)
    SysTick_CLKSourceConfig                  0x0800292d   Thumb Code    40  misc.o(i.SysTick_CLKSourceConfig)
    SysTick_Handler                          0x08002955   Thumb Code     2  stm32f10x_it.o(i.SysTick_Handler)
    SystemInit                               0x08002959   Thumb Code    78  system_stm32f10x.o(i.SystemInit)
    System_PB34_setIO                        0x080029b9   Thumb Code    36  led.o(i.System_PB34_setIO)
    System_ReadInteriorFlash                 0x080029e5   Thumb Code    58  flash.o(i.System_ReadInteriorFlash)
    System_WriteInteriorFlash                0x08002a25   Thumb Code   354  flash.o(i.System_WriteInteriorFlash)
    TIM4_IRQHandler                          0x08002ba1   Thumb Code   110  timer.o(i.TIM4_IRQHandler)
    TIM_ClearFlag                            0x08002c25   Thumb Code     6  stm32f10x_tim.o(i.TIM_ClearFlag)
    TIM_ClearITPendingBit                    0x08002c2b   Thumb Code     6  stm32f10x_tim.o(i.TIM_ClearITPendingBit)
    TIM_Cmd                                  0x08002c31   Thumb Code    24  stm32f10x_tim.o(i.TIM_Cmd)
    TIM_GetITStatus                          0x08002c49   Thumb Code    34  stm32f10x_tim.o(i.TIM_GetITStatus)
    TIM_ITConfig                             0x08002c6b   Thumb Code    18  stm32f10x_tim.o(i.TIM_ITConfig)
    TIM_TimeBaseInit                         0x08002c7d   Thumb Code   122  stm32f10x_tim.o(i.TIM_TimeBaseInit)
    USART1_IRQHandler                        0x08002d35   Thumb Code   122  usart.o(i.USART1_IRQHandler)
    USART2_IRQHandler                        0x08002dbd   Thumb Code   134  usart2.o(i.USART2_IRQHandler)
    USART3_IRQHandler                        0x08002e55   Thumb Code    62  usart3.o(i.USART3_IRQHandler)
    USART_ClearFlag                          0x08002ea1   Thumb Code    18  stm32f10x_usart.o(i.USART_ClearFlag)
    USART_Cmd                                0x08002eb3   Thumb Code    24  stm32f10x_usart.o(i.USART_Cmd)
    USART_DeInit                             0x08002ecd   Thumb Code   134  stm32f10x_usart.o(i.USART_DeInit)
    USART_GetFlagStatus                      0x08002f69   Thumb Code    26  stm32f10x_usart.o(i.USART_GetFlagStatus)
    USART_GetITStatus                        0x08002f83   Thumb Code    84  stm32f10x_usart.o(i.USART_GetITStatus)
    USART_ITConfig                           0x08002fd7   Thumb Code    74  stm32f10x_usart.o(i.USART_ITConfig)
    USART_Init                               0x08003021   Thumb Code   210  stm32f10x_usart.o(i.USART_Init)
    USART_ReceiveData                        0x080030f9   Thumb Code    10  stm32f10x_usart.o(i.USART_ReceiveData)
    USART_SendData                           0x08003103   Thumb Code     8  stm32f10x_usart.o(i.USART_SendData)
    Update_device_massage                    0x0800310d   Thumb Code    88  git.o(i.Update_device_massage)
    Update_oled_massage                      0x08003171   Thumb Code    72  git.o(i.Update_oled_massage)
    UsageFault_Handler                       0x080031f1   Thumb Code     4  stm32f10x_it.o(i.UsageFault_Handler)
    Usart1_Init                              0x080031f5   Thumb Code   152  usart.o(i.Usart1_Init)
    Usart2_Init                              0x08003295   Thumb Code   166  usart2.o(i.Usart2_Init)
    Usart3_Init                              0x08003345   Thumb Code   162  usart3.o(i.Usart3_Init)
    Usart3_SendString                        0x080033f1   Thumb Code    44  usart3.o(i.Usart3_SendString)
    W_Test                                   0x08003421   Thumb Code    30  flash.o(i.W_Test)
    __0printf                                0x0800344d   Thumb Code    22  printfa.o(i.__0printf)
    __1printf                                0x0800344d   Thumb Code     0  printfa.o(i.__0printf)
    __2printf                                0x0800344d   Thumb Code     0  printfa.o(i.__0printf)
    __c89printf                              0x0800344d   Thumb Code     0  printfa.o(i.__0printf)
    printf                                   0x0800344d   Thumb Code     0  printfa.o(i.__0printf)
    __0sprintf                               0x0800346d   Thumb Code    34  printfa.o(i.__0sprintf)
    __1sprintf                               0x0800346d   Thumb Code     0  printfa.o(i.__0sprintf)
    __2sprintf                               0x0800346d   Thumb Code     0  printfa.o(i.__0sprintf)
    __c89sprintf                             0x0800346d   Thumb Code     0  printfa.o(i.__0sprintf)
    sprintf                                  0x0800346d   Thumb Code     0  printfa.o(i.__0sprintf)
    __ARM_fpclassify                         0x08003495   Thumb Code    40  fpclassify.o(i.__ARM_fpclassify)
    free                                     0x080034bd   Thumb Code    88  mallocr.o(i.__free$realloc)
    __kernel_poly                            0x08003519   Thumb Code   170  poly.o(i.__kernel_poly)
    malloc                                   0x080035c5   Thumb Code    64  mallocr.o(i.__malloc$realloc)
    __mathlib_dbl_infnan                     0x08003615   Thumb Code     6  dunder.o(i.__mathlib_dbl_infnan)
    __mathlib_dbl_infnan2                    0x0800361b   Thumb Code     4  dunder.o(i.__mathlib_dbl_infnan2)
    __mathlib_dbl_underflow                  0x08003621   Thumb Code    10  dunder.o(i.__mathlib_dbl_underflow)
    __scatterload_copy                       0x08003631   Thumb Code    14  handlers.o(i.__scatterload_copy)
    __scatterload_null                       0x0800363f   Thumb Code     2  handlers.o(i.__scatterload_null)
    __scatterload_zeroinit                   0x08003641   Thumb Code    14  handlers.o(i.__scatterload_zeroinit)
    __set_errno                              0x08003651   Thumb Code     6  errno.o(i.__set_errno)
    _is_digit                                0x080037e1   Thumb Code    14  scanf_fp.o(i._is_digit)
    atan                                     0x08003f01   Thumb Code   474  atan.o(i.atan)
    atan2                                    0x08004121   Thumb Code   374  atan2.o(i.atan2)
    cJSON_Delete                             0x08004305   Thumb Code    84  cjson.o(i.cJSON_Delete)
    cJSON_GetObjectItem                      0x0800435d   Thumb Code    18  cjson.o(i.cJSON_GetObjectItem)
    cJSON_Parse                              0x08004389   Thumb Code    16  cjson.o(i.cJSON_Parse)
    cJSON_ParseWithLengthOpts                0x08004399   Thumb Code   204  cjson.o(i.cJSON_ParseWithLengthOpts)
    cJSON_ParseWithOpts                      0x0800446d   Thumb Code    40  cjson.o(i.cJSON_ParseWithOpts)
    delay_init                               0x080044dd   Thumb Code    50  delay.o(i.delay_init)
    delay_ms                                 0x08004521   Thumb Code    72  delay.o(i.delay_ms)
    delay_us                                 0x0800456d   Thumb Code    72  delay.o(i.delay_us)
    fputc                                    0x080045b9   Thumb Code    24  usart.o(i.fputc)
    main                                     0x0800467d   Thumb Code    62  main.o(i.main)
    massage_ga10_json                        0x080046c5   Thumb Code   112  ga10.o(i.massage_ga10_json)
    realloc                                  0x08004df9   Thumb Code   102  mallocr.o(i.realloc)
    strtod                                   0x08004ea1   Thumb Code    28  strtod.o(i.strtod)
    task1                                    0x08004ebd   Thumb Code    12  main.o(i.task1)
    task2                                    0x08004ec9   Thumb Code    26  main.o(i.task2)
    task3                                    0x08004ef1   Thumb Code    14  main.o(i.task3)
    timer_init                               0x08004f05   Thumb Code    28  task.o(i.timer_init)
    timer_loop                               0x08004f25   Thumb Code    54  task.o(i.timer_loop)
    timer_start                              0x08004f65   Thumb Code    38  task.o(i.timer_start)
    timer_stop                               0x08004f91   Thumb Code    32  task.o(i.timer_stop)
    timer_ticks                              0x08004fb5   Thumb Code    12  task.o(i.timer_ticks)
    __mathlib_zero                           0x080051b0   Data           8  qnan.o(.constdata)
    __ctype_categories                       0x080051b8   Data          64  ctype_c.o(.constdata)
    Region$$Table$$Base                      0x0800526c   Number         0  anon$$obj.o(Region$$Table)
    Region$$Table$$Limit                     0x0800528c   Number         0  anon$$obj.o(Region$$Table)
    Connect_Net                              0x20000000   Data           1  main.o(.data)
    topics                                   0x20000004   Data           4  main.o(.data)
    SystemCoreClock                          0x20000008   Data           4  system_stm32f10x.o(.data)
    AHBPrescTable                            0x2000000c   Data          16  system_stm32f10x.o(.data)
    zf                                       0x20000020   Data        1520  oled.o(.data)
    hz                                       0x20000610   Data         800  oled.o(.data)
    hz_index                                 0x20000930   Data          51  oled.o(.data)
    zf_index                                 0x20000963   Data          96  oled.o(.data)
    HZ                                       0x200009c4   Data           4  oled.o(.data)
    addrShort1                               0x200009c8   Data           4  flash.o(.data)
    addrShort2                               0x200009cc   Data           4  flash.o(.data)
    rxdatabufer                              0x200009d0   Data           1  usart2.o(.data)
    point1                                   0x200009d2   Data           2  usart2.o(.data)
    USART2_RX_STA                            0x200009d4   Data           2  usart2.o(.data)
    SF                                       0x200009d6   Data           1  hmc5883l.o(.data)
    __stdout                                 0x200009dc   Data           4  usart.o(.data)
    USART_RX_STA                             0x200009e0   Data           2  usart.o(.data)
    esp8266_cnt                              0x20000a0c   Data           2  usart3.o(.data)
    esp8266_cntPre                           0x20000a0e   Data           2  usart3.o(.data)
    threshold_value_init                     0x20000a10   Data           8  git.o(.data)
    time_4                                   0x20000a24   Data           4  timer.o(.data)
    time25ms                                 0x20000a28   Data           1  timer.o(.data)
    Usart2_Time                              0x20000a2a   Data           2  timer.o(.data)
    TimeCount1ms                             0x20000a2c   Data           4  timer.o(.data)
    bTimeout10ms                             0x20000a30   Data           1  timer.o(.data)
    __microlib_freelist                      0x20000a34   Data           4  mvars.o(.data)
    __microlib_freelist_initialised          0x20000a38   Data           4  mvars.o(.data)
    Save_Data                                0x20001a70   Data         121  usart2.o(.bss)
    USART_RX2_BUF                            0x20001ae9   Data         200  usart2.o(.bss)
    hmc_xyz_init                             0x20001bb4   Data          12  hmc5883l.o(.bss)
    USART_RX_BUF                             0x20001bc0   Data         200  usart.o(.bss)
    esp8266_buf                              0x20002488   Data         256  usart3.o(.bss)
    Data_init                                0x20002d88   Data          24  git.o(.bss)
    device_state_init                        0x20002da0   Data           9  git.o(.bss)
    __heap_base                              0x20002db0   Data           0  startup_stm32f10x_hd.o(HEAP)
    __heap_limit                             0x200039b0   Data           0  startup_stm32f10x_hd.o(HEAP)
    __initial_sp                             0x20003db0   Data           0  startup_stm32f10x_hd.o(STACK)



==============================================================================

Memory Map of the image

  Image Entry point : 0x08000149

  Load Region LR_1 (Base: 0x08000000, Size: 0x00005ccc, Max: 0xffffffff, ABSOLUTE, COMPRESSED[0x00005958])

    Execution Region ER_RO (Exec base: 0x08000000, Load base: 0x08000000, Size: 0x0000528c, Max: 0xffffffff, ABSOLUTE)

    Exec Addr    Load Addr    Size         Type   Attr      Idx    E Section Name        Object

    0x08000000   0x08000000   0x00000130   Data   RO          910    RESET               startup_stm32f10x_hd.o
    0x08000130   0x08000130   0x00000000   Code   RO         3761  * .ARM.Collect$$$$00000000  mc_w.l(entry.o)
    0x08000130   0x08000130   0x00000004   Code   RO         4122    .ARM.Collect$$$$00000001  mc_w.l(entry2.o)
    0x08000134   0x08000134   0x00000004   Code   RO         4125    .ARM.Collect$$$$00000004  mc_w.l(entry5.o)
    0x08000138   0x08000138   0x00000000   Code   RO         4127    .ARM.Collect$$$$00000008  mc_w.l(entry7b.o)
    0x08000138   0x08000138   0x00000000   Code   RO         4129    .ARM.Collect$$$$0000000A  mc_w.l(entry8b.o)
    0x08000138   0x08000138   0x00000008   Code   RO         4130    .ARM.Collect$$$$0000000B  mc_w.l(entry9a.o)
    0x08000140   0x08000140   0x00000004   Code   RO         4137    .ARM.Collect$$$$0000000E  mc_w.l(entry12b.o)
    0x08000144   0x08000144   0x00000000   Code   RO         4132    .ARM.Collect$$$$0000000F  mc_w.l(entry10a.o)
    0x08000144   0x08000144   0x00000000   Code   RO         4134    .ARM.Collect$$$$00000011  mc_w.l(entry11a.o)
    0x08000144   0x08000144   0x00000004   Code   RO         4123    .ARM.Collect$$$$00002712  mc_w.l(entry2.o)
    0x08000148   0x08000148   0x00000024   Code   RO          911  * .text               startup_stm32f10x_hd.o
    0x0800016c   0x0800016c   0x0000000c   Code   RO         3764    .text               mc_w.l(tolower.o)
    0x08000178   0x08000178   0x00000024   Code   RO         3766    .text               mc_w.l(memcpya.o)
    0x0800019c   0x0800019c   0x00000024   Code   RO         3768    .text               mc_w.l(memseta.o)
    0x080001c0   0x080001c0   0x00000018   Code   RO         3770    .text               mc_w.l(strcat.o)
    0x080001d8   0x080001d8   0x00000024   Code   RO         3772    .text               mc_w.l(strstr.o)
    0x080001fc   0x080001fc   0x00000014   Code   RO         3774    .text               mc_w.l(strchr.o)
    0x08000210   0x08000210   0x0000000e   Code   RO         3776    .text               mc_w.l(strlen.o)
    0x0800021e   0x0800021e   0x0000001c   Code   RO         3778    .text               mc_w.l(strcmp.o)
    0x0800023a   0x0800023a   0x0000001e   Code   RO         3782    .text               mc_w.l(strncmp.o)
    0x08000258   0x08000258   0x00000360   Code   RO         4077    .text               mc_w.l(scanf_fp.o)
    0x080005b8   0x080005b8   0x0000014e   Code   RO         4081    .text               mf_w.l(dadd.o)
    0x08000706   0x08000706   0x000000e4   Code   RO         4083    .text               mf_w.l(dmul.o)
    0x080007ea   0x080007ea   0x00000022   Code   RO         4085    .text               mf_w.l(dflti.o)
    0x0800080c   0x0800080c   0x0000003e   Code   RO         4087    .text               mf_w.l(dfixi.o)
    0x0800084a   0x0800084a   0x00000002   PAD
    0x0800084c   0x0800084c   0x00000030   Code   RO         4091    .text               mf_w.l(cdcmple.o)
    0x0800087c   0x0800087c   0x00000030   Code   RO         4093    .text               mf_w.l(cdrcmple.o)
    0x080008ac   0x080008ac   0x00000038   Code   RO         4095    .text               mf_w.l(d2f.o)
    0x080008e4   0x080008e4   0x0000002c   Code   RO         4138    .text               mc_w.l(uidiv.o)
    0x08000910   0x08000910   0x00000062   Code   RO         4140    .text               mc_w.l(uldiv.o)
    0x08000972   0x08000972   0x0000001e   Code   RO         4142    .text               mc_w.l(llshl.o)
    0x08000990   0x08000990   0x00000020   Code   RO         4144    .text               mc_w.l(llushr.o)
    0x080009b0   0x080009b0   0x00000024   Code   RO         4146    .text               mc_w.l(llsshr.o)
    0x080009d4   0x080009d4   0x00000040   Code   RO         4159    .text               mc_w.l(_sgetc.o)
    0x08000a14   0x08000a14   0x0000009c   Code   RO         4161    .text               mc_w.l(strtod.o)
    0x08000ab0   0x08000ab0   0x00000000   Code   RO         4163    .text               mc_w.l(iusefp.o)
    0x08000ab0   0x08000ab0   0x0000006e   Code   RO         4164    .text               mf_w.l(fepilogue.o)
    0x08000b1e   0x08000b1e   0x000000ba   Code   RO         4166    .text               mf_w.l(depilogue.o)
    0x08000bd8   0x08000bd8   0x000000de   Code   RO         4168    .text               mf_w.l(ddiv.o)
    0x08000cb6   0x08000cb6   0x00000018   Code   RO         4170    .text               mf_w.l(dfltul.o)
    0x08000cce   0x08000cce   0x00000030   Code   RO         4172    .text               mf_w.l(dfixul.o)
    0x08000cfe   0x08000cfe   0x00000002   PAD
    0x08000d00   0x08000d00   0x00000024   Code   RO         4178    .text               mc_w.l(init.o)
    0x08000d24   0x08000d24   0x0000000a   Code   RO         4180    .text               mc_w.l(isspace_c.o)
    0x08000d2e   0x08000d2e   0x0000002e   Code   RO         4184    .text               mf_w.l(dscalb.o)
    0x08000d5c   0x08000d5c   0x00000028   Code   RO         4186    .text               mc_w.l(ctype_c.o)
    0x08000d84   0x08000d84   0x00000056   Code   RO         4197    .text               mc_w.l(__dczerorl2.o)
    0x08000dda   0x08000dda   0x00000002   PAD
    0x08000ddc   0x08000ddc   0x0000015c   Code   RO         3594    i.Automation_Close  git.o
    0x08000f38   0x08000f38   0x00000004   Code   RO          218    i.BusFault_Handler  stm32f10x_it.o
    0x08000f3c   0x08000f3c   0x0000001c   Code   RO          566    i.CLR_Buf           usart2.o
    0x08000f58   0x08000f58   0x0000010c   Code   RO         3595    i.Check_Key_ON_OFF  git.o
    0x08001064   0x08001064   0x00000002   Code   RO          219    i.DebugMon_Handler  stm32f10x_it.o
    0x08001066   0x08001066   0x00000002   PAD
    0x08001068   0x08001068   0x0000001c   Code   RO         3479    i.ESP8266_Clear     usart3.o
    0x08001084   0x08001084   0x00000050   Code   RO         3480    i.ESP8266_GetIPD    usart3.o
    0x080010d4   0x080010d4   0x00000034   Code   RO         3484    i.ESP8266_WaitRecive  usart3.o
    0x08001108   0x08001108   0x00000100   Code   RO         3543    i.FillBuf           ga10.o
    0x08001208   0x08001208   0x000002c8   Code   RO         3544    i.GA10_Init         ga10.o
    0x080014d0   0x080014d0   0x0000006c   Code   RO         3545    i.GA10_SendCmd      ga10.o
    0x0800153c   0x0800153c   0x00000018   Code   RO          384    i.GB16_NUM          oled.o
    0x08001554   0x08001554   0x00000052   Code   RO         3690    i.GENERAL_TIMClock_Enable  timer.o
    0x080015a6   0x080015a6   0x00000020   Code   RO         3691    i.GENERAL_TIM_Init  timer.o
    0x080015c6   0x080015c6   0x000000ac   Code   RO         3692    i.GENERAL_TIM_Mode_Config  timer.o
    0x08001672   0x08001672   0x0000004c   Code   RO         3693    i.GENERAL_TIM_NVIC_Config  timer.o
    0x080016be   0x080016be   0x00000116   Code   RO          957    i.GPIO_Init         stm32f10x_gpio.o
    0x080017d4   0x080017d4   0x00000090   Code   RO          959    i.GPIO_PinRemapConfig  stm32f10x_gpio.o
    0x08001864   0x08001864   0x00000012   Code   RO          961    i.GPIO_ReadInputDataBit  stm32f10x_gpio.o
    0x08001876   0x08001876   0x00000004   Code   RO          964    i.GPIO_ResetBits    stm32f10x_gpio.o
    0x0800187a   0x0800187a   0x00000004   Code   RO          965    i.GPIO_SetBits      stm32f10x_gpio.o
    0x0800187e   0x0800187e   0x00000002   PAD
    0x08001880   0x08001880   0x00000034   Code   RO          655    i.GY_IIC_Ack        hmc5883l.o
    0x080018b4   0x080018b4   0x0000000a   Code   RO          656    i.GY_IIC_Delay      hmc5883l.o
    0x080018be   0x080018be   0x00000002   PAD
    0x080018c0   0x080018c0   0x0000005c   Code   RO          657    i.GY_IIC_Init       hmc5883l.o
    0x0800191c   0x0800191c   0x00000034   Code   RO          658    i.GY_IIC_NAck       hmc5883l.o
    0x08001950   0x08001950   0x00000054   Code   RO          659    i.GY_IIC_Read_Byte  hmc5883l.o
    0x080019a4   0x080019a4   0x00000048   Code   RO          660    i.GY_IIC_Send_Byte  hmc5883l.o
    0x080019ec   0x080019ec   0x00000034   Code   RO          661    i.GY_IIC_Start      hmc5883l.o
    0x08001a20   0x08001a20   0x00000030   Code   RO          662    i.GY_IIC_Stop       hmc5883l.o
    0x08001a50   0x08001a50   0x0000004c   Code   RO          663    i.GY_IIC_Wait_Ack   hmc5883l.o
    0x08001a9c   0x08001a9c   0x00000028   Code   RO          664    i.GY_SDA_IN         hmc5883l.o
    0x08001ac4   0x08001ac4   0x0000002c   Code   RO          665    i.GY_SDA_OUT        hmc5883l.o
    0x08001af0   0x08001af0   0x000000bc   Code   RO          666    i.HMC5883_Get_Angle  hmc5883l.o
    0x08001bac   0x08001bac   0x000001c8   Code   RO          668    i.HMC5883_Init      hmc5883l.o
    0x08001d74   0x08001d74   0x00000048   Code   RO          669    i.HMC5883_SB_Read   hmc5883l.o
    0x08001dbc   0x08001dbc   0x00000046   Code   RO          670    i.HMC5883_SB_Write  hmc5883l.o
    0x08001e02   0x08001e02   0x00000004   Code   RO          220    i.HardFault_Handler  stm32f10x_it.o
    0x08001e06   0x08001e06   0x00000002   PAD
    0x08001e08   0x08001e08   0x00000088   Code   RO            1    i.Hardware_Init     main.o
    0x08001e90   0x08001e90   0x00000030   Code   RO          619    i.JR6001_Init       jr6001.o
    0x08001ec0   0x08001ec0   0x0000008c   Code   RO          621    i.JR6001_SendCode   jr6001.o
    0x08001f4c   0x08001f4c   0x00000074   Code   RO          622    i.JR6001_SongControl  jr6001.o
    0x08001fc0   0x08001fc0   0x00000024   Code   RO          623    i.JR6001_Volumecontrol  jr6001.o
    0x08001fe4   0x08001fe4   0x00000074   Code   RO          359    i.KEY_Scan          key.o
    0x08002058   0x08002058   0x0000003c   Code   RO          360    i.Key_GPIO_Config   key.o
    0x08002094   0x08002094   0x000000a4   Code   RO          341    i.LED_Init          led.o
    0x08002138   0x08002138   0x00000004   Code   RO          221    i.MemManage_Handler  stm32f10x_it.o
    0x0800213c   0x0800213c   0x00000094   Code   RO         3547    i.Mqtt_Pub          ga10.o
    0x080021d0   0x080021d0   0x00000002   Code   RO          222    i.NMI_Handler       stm32f10x_it.o
    0x080021d2   0x080021d2   0x00000002   PAD
    0x080021d4   0x080021d4   0x00000070   Code   RO          915    i.NVIC_Init         misc.o
    0x08002244   0x08002244   0x00000014   Code   RO          916    i.NVIC_PriorityGroupConfig  misc.o
    0x08002258   0x08002258   0x00000074   Code   RO            2    i.Net_Init          main.o
    0x080022cc   0x080022cc   0x0000000a   Code   RO          385    i.OLED_Clear        oled.o
    0x080022d6   0x080022d6   0x0000001c   Code   RO          387    i.OLED_ColorTurn    oled.o
    0x080022f2   0x080022f2   0x0000002c   Code   RO          390    i.OLED_DisplayTurn  oled.o
    0x0800231e   0x0800231e   0x00000042   Code   RO          393    i.OLED_Fill         oled.o
    0x08002360   0x08002360   0x00000118   Code   RO          394    i.OLED_Init         oled.o
    0x08002478   0x08002478   0x00000138   Code   RO          396    i.OLED_ShowCH       oled.o
    0x080025b0   0x080025b0   0x0000002a   Code   RO          400    i.OLED_WR_BP        oled.o
    0x080025da   0x080025da   0x00000002   PAD
    0x080025dc   0x080025dc   0x00000070   Code   RO          401    i.OLED_WR_Byte      oled.o
    0x0800264c   0x0800264c   0x00000002   Code   RO          223    i.PendSV_Handler    stm32f10x_it.o
    0x0800264e   0x0800264e   0x00000002   PAD
    0x08002650   0x08002650   0x00000020   Code   RO         2479    i.RCC_APB1PeriphClockCmd  stm32f10x_rcc.o
    0x08002670   0x08002670   0x00000020   Code   RO         2480    i.RCC_APB1PeriphResetCmd  stm32f10x_rcc.o
    0x08002690   0x08002690   0x00000020   Code   RO         2481    i.RCC_APB2PeriphClockCmd  stm32f10x_rcc.o
    0x080026b0   0x080026b0   0x00000020   Code   RO         2482    i.RCC_APB2PeriphResetCmd  stm32f10x_rcc.o
    0x080026d0   0x080026d0   0x000000d4   Code   RO         2489    i.RCC_GetClocksFreq  stm32f10x_rcc.o
    0x080027a4   0x080027a4   0x0000002c   Code   RO          514    i.R_Test            flash.o
    0x080027d0   0x080027d0   0x00000006   Code   RO         3596    i.Read_Data         git.o
    0x080027d6   0x080027d6   0x00000012   Code   RO         3597    i.Reset_Threshole_Value  git.o
    0x080027e8   0x080027e8   0x00000002   Code   RO          224    i.SVC_Handler       stm32f10x_it.o
    0x080027ea   0x080027ea   0x00000008   Code   RO          307    i.SetSysClock       system_stm32f10x.o
    0x080027f2   0x080027f2   0x00000002   PAD
    0x080027f4   0x080027f4   0x000000e0   Code   RO          308    i.SetSysClockTo72   system_stm32f10x.o
    0x080028d4   0x080028d4   0x00000058   Code   RO            3    i.SoftWare_Init     main.o
    0x0800292c   0x0800292c   0x00000028   Code   RO          919    i.SysTick_CLKSourceConfig  misc.o
    0x08002954   0x08002954   0x00000002   Code   RO          225    i.SysTick_Handler   stm32f10x_it.o
    0x08002956   0x08002956   0x00000002   PAD
    0x08002958   0x08002958   0x00000060   Code   RO          310    i.SystemInit        system_stm32f10x.o
    0x080029b8   0x080029b8   0x0000002c   Code   RO          342    i.System_PB34_setIO  led.o
    0x080029e4   0x080029e4   0x00000040   Code   RO          515    i.System_ReadInteriorFlash  flash.o
    0x08002a24   0x08002a24   0x0000017c   Code   RO          516    i.System_WriteInteriorFlash  flash.o
    0x08002ba0   0x08002ba0   0x00000084   Code   RO         3694    i.TIM4_IRQHandler   timer.o
    0x08002c24   0x08002c24   0x00000006   Code   RO         1429    i.TIM_ClearFlag     stm32f10x_tim.o
    0x08002c2a   0x08002c2a   0x00000006   Code   RO         1430    i.TIM_ClearITPendingBit  stm32f10x_tim.o
    0x08002c30   0x08002c30   0x00000018   Code   RO         1435    i.TIM_Cmd           stm32f10x_tim.o
    0x08002c48   0x08002c48   0x00000022   Code   RO         1456    i.TIM_GetITStatus   stm32f10x_tim.o
    0x08002c6a   0x08002c6a   0x00000012   Code   RO         1460    i.TIM_ITConfig      stm32f10x_tim.o
    0x08002c7c   0x08002c7c   0x000000a4   Code   RO         1506    i.TIM_TimeBaseInit  stm32f10x_tim.o
    0x08002d20   0x08002d20   0x00000014   Code   RO         3695    i.TimeModule_get    timer.o
    0x08002d34   0x08002d34   0x00000088   Code   RO          833    i.USART1_IRQHandler  usart.o
    0x08002dbc   0x08002dbc   0x00000098   Code   RO          568    i.USART2_IRQHandler  usart2.o
    0x08002e54   0x08002e54   0x0000004c   Code   RO         3485    i.USART3_IRQHandler  usart3.o
    0x08002ea0   0x08002ea0   0x00000012   Code   RO         1065    i.USART_ClearFlag   stm32f10x_usart.o
    0x08002eb2   0x08002eb2   0x00000018   Code   RO         1069    i.USART_Cmd         stm32f10x_usart.o
    0x08002eca   0x08002eca   0x00000002   PAD
    0x08002ecc   0x08002ecc   0x0000009c   Code   RO         1071    i.USART_DeInit      stm32f10x_usart.o
    0x08002f68   0x08002f68   0x0000001a   Code   RO         1072    i.USART_GetFlagStatus  stm32f10x_usart.o
    0x08002f82   0x08002f82   0x00000054   Code   RO         1073    i.USART_GetITStatus  stm32f10x_usart.o
    0x08002fd6   0x08002fd6   0x0000004a   Code   RO         1075    i.USART_ITConfig    stm32f10x_usart.o
    0x08003020   0x08003020   0x000000d8   Code   RO         1076    i.USART_Init        stm32f10x_usart.o
    0x080030f8   0x080030f8   0x0000000a   Code   RO         1083    i.USART_ReceiveData  stm32f10x_usart.o
    0x08003102   0x08003102   0x00000008   Code   RO         1086    i.USART_SendData    stm32f10x_usart.o
    0x0800310a   0x0800310a   0x00000002   PAD
    0x0800310c   0x0800310c   0x00000064   Code   RO         3598    i.Update_device_massage  git.o
    0x08003170   0x08003170   0x00000080   Code   RO         3599    i.Update_oled_massage  git.o
    0x080031f0   0x080031f0   0x00000004   Code   RO          226    i.UsageFault_Handler  stm32f10x_it.o
    0x080031f4   0x080031f4   0x000000a0   Code   RO          834    i.Usart1_Init       usart.o
    0x08003294   0x08003294   0x000000b0   Code   RO          569    i.Usart2_Init       usart2.o
    0x08003344   0x08003344   0x000000ac   Code   RO         3486    i.Usart3_Init       usart3.o
    0x080033f0   0x080033f0   0x00000030   Code   RO         3487    i.Usart3_SendString  usart3.o
    0x08003420   0x08003420   0x0000002c   Code   RO          518    i.W_Test            flash.o
    0x0800344c   0x0800344c   0x00000020   Code   RO         4019    i.__0printf         mc_w.l(printfa.o)
    0x0800346c   0x0800346c   0x00000028   Code   RO         4021    i.__0sprintf        mc_w.l(printfa.o)
    0x08003494   0x08003494   0x00000028   Code   RO         4174    i.__ARM_fpclassify  m_ws.l(fpclassify.o)
    0x080034bc   0x080034bc   0x0000005c   Code   RO         4051    i.__free$realloc    mc_w.l(mallocr.o)
    0x08003518   0x08003518   0x000000aa   Code   RO         4176    i.__kernel_poly     m_ws.l(poly.o)
    0x080035c2   0x080035c2   0x00000002   PAD
    0x080035c4   0x080035c4   0x00000050   Code   RO         4052    i.__malloc$realloc  mc_w.l(mallocr.o)
    0x08003614   0x08003614   0x00000006   Code   RO         4108    i.__mathlib_dbl_infnan  m_ws.l(dunder.o)
    0x0800361a   0x0800361a   0x00000004   Code   RO         4109    i.__mathlib_dbl_infnan2  m_ws.l(dunder.o)
    0x0800361e   0x0800361e   0x00000002   PAD
    0x08003620   0x08003620   0x00000010   Code   RO         4113    i.__mathlib_dbl_underflow  m_ws.l(dunder.o)
    0x08003630   0x08003630   0x0000000e   Code   RO         4191    i.__scatterload_copy  mc_w.l(handlers.o)
    0x0800363e   0x0800363e   0x00000002   Code   RO         4192    i.__scatterload_null  mc_w.l(handlers.o)
    0x08003640   0x08003640   0x0000000e   Code   RO         4193    i.__scatterload_zeroinit  mc_w.l(handlers.o)
    0x0800364e   0x0800364e   0x00000002   PAD
    0x08003650   0x08003650   0x0000000c   Code   RO         4152    i.__set_errno       mc_w.l(errno.o)
    0x0800365c   0x0800365c   0x00000184   Code   RO         4026    i._fp_digits        mc_w.l(printfa.o)
    0x080037e0   0x080037e0   0x0000000e   Code   RO         4079    i._is_digit         mc_w.l(scanf_fp.o)
    0x080037ee   0x080037ee   0x00000002   PAD
    0x080037f0   0x080037f0   0x000006b4   Code   RO         4027    i._printf_core      mc_w.l(printfa.o)
    0x08003ea4   0x08003ea4   0x00000024   Code   RO         4028    i._printf_post_padding  mc_w.l(printfa.o)
    0x08003ec8   0x08003ec8   0x0000002e   Code   RO         4029    i._printf_pre_padding  mc_w.l(printfa.o)
    0x08003ef6   0x08003ef6   0x0000000a   Code   RO         4031    i._sputc            mc_w.l(printfa.o)
    0x08003f00   0x08003f00   0x00000220   Code   RO         4098    i.atan              m_ws.l(atan.o)
    0x08004120   0x08004120   0x0000019c   Code   RO         3750    i.atan2             m_ws.l(atan2.o)
    0x080042bc   0x080042bc   0x00000048   Code   RO         2805    i.buffer_skip_whitespace  cjson.o
    0x08004304   0x08004304   0x00000058   Code   RO         2837    i.cJSON_Delete      cjson.o
    0x0800435c   0x0800435c   0x00000012   Code   RO         2850    i.cJSON_GetObjectItem  cjson.o
    0x0800436e   0x0800436e   0x0000001a   Code   RO         2867    i.cJSON_New_Item    cjson.o
    0x08004388   0x08004388   0x00000010   Code   RO         2868    i.cJSON_Parse       cjson.o
    0x08004398   0x08004398   0x000000d4   Code   RO         2870    i.cJSON_ParseWithLengthOpts  cjson.o
    0x0800446c   0x0800446c   0x00000028   Code   RO         2871    i.cJSON_ParseWithOpts  cjson.o
    0x08004494   0x08004494   0x00000048   Code   RO         2886    i.case_insensitive_strcmp  cjson.o
    0x080044dc   0x080044dc   0x00000044   Code   RO          769    i.delay_init        delay.o
    0x08004520   0x08004520   0x0000004c   Code   RO          770    i.delay_ms          delay.o
    0x0800456c   0x0800456c   0x0000004c   Code   RO          771    i.delay_us          delay.o
    0x080045b8   0x080045b8   0x0000001c   Code   RO          840    i.fputc             usart.o
    0x080045d4   0x080045d4   0x00000004   Code   RO         2892    i.get_decimal_point  cjson.o
    0x080045d8   0x080045d8   0x00000052   Code   RO         2893    i.get_object_item   cjson.o
    0x0800462a   0x0800462a   0x00000002   PAD
    0x0800462c   0x0800462c   0x00000050   Code   RO         4053    i.internal_alloc    mc_w.l(mallocr.o)
    0x0800467c   0x0800467c   0x00000048   Code   RO            4    i.main              main.o
    0x080046c4   0x080046c4   0x000000a0   Code   RO         3548    i.massage_ga10_json  ga10.o
    0x08004764   0x08004764   0x000000f8   Code   RO         2895    i.parse_array       cjson.o
    0x0800485c   0x0800485c   0x0000005a   Code   RO         2896    i.parse_hex4        cjson.o
    0x080048b6   0x080048b6   0x00000002   PAD
    0x080048b8   0x080048b8   0x00000138   Code   RO         2897    i.parse_number      cjson.o
    0x080049f0   0x080049f0   0x0000013e   Code   RO         2898    i.parse_object      cjson.o
    0x08004b2e   0x08004b2e   0x0000018c   Code   RO         2899    i.parse_string      cjson.o
    0x08004cba   0x08004cba   0x00000002   PAD
    0x08004cbc   0x08004cbc   0x0000013c   Code   RO         2900    i.parse_value       cjson.o
    0x08004df8   0x08004df8   0x0000006c   Code   RO         4054    i.realloc           mc_w.l(mallocr.o)
    0x08004e64   0x08004e64   0x0000003c   Code   RO         2911    i.skip_utf8_bom     cjson.o
    0x08004ea0   0x08004ea0   0x0000001c   Code   RO         3758    i.strtod            m_ws.l(strtod.o)
    0x08004ebc   0x08004ebc   0x0000000c   Code   RO            5    i.task1             main.o
    0x08004ec8   0x08004ec8   0x00000028   Code   RO            6    i.task2             main.o
    0x08004ef0   0x08004ef0   0x00000014   Code   RO            7    i.task3             main.o
    0x08004f04   0x08004f04   0x00000020   Code   RO         3652    i.timer_init        task.o
    0x08004f24   0x08004f24   0x00000040   Code   RO         3653    i.timer_loop        task.o
    0x08004f64   0x08004f64   0x0000002c   Code   RO         3654    i.timer_start       task.o
    0x08004f90   0x08004f90   0x00000024   Code   RO         3655    i.timer_stop        task.o
    0x08004fb4   0x08004fb4   0x00000010   Code   RO         3656    i.timer_ticks       task.o
    0x08004fc4   0x08004fc4   0x0000012c   Code   RO         2914    i.utf16_literal_to_utf8  cjson.o
    0x080050f0   0x080050f0   0x00000024   Code   RO          519    i.waitForFlashBSY   flash.o
    0x08005114   0x08005114   0x00000004   PAD
    0x08005118   0x08005118   0x00000098   Data   RO         4099    .constdata          m_ws.l(atan.o)
    0x080051b0   0x080051b0   0x00000008   Data   RO         4121    .constdata          m_ws.l(qnan.o)
    0x080051b8   0x080051b8   0x00000040   Data   RO         4187    .constdata          mc_w.l(ctype_c.o)
    0x080051f8   0x080051f8   0x0000001d   Data   RO            9    .conststring        main.o
    0x08005215   0x08005215   0x00000003   PAD
    0x08005218   0x08005218   0x00000051   Data   RO          672    .conststring        hmc5883l.o
    0x08005269   0x08005269   0x00000003   PAD
    0x0800526c   0x0800526c   0x00000020   Data   RO         4189    Region$$Table       anon$$obj.o


    Execution Region ER_RW (Exec base: 0x20000000, Load base: 0x0800528c, Size: 0x00000a40, Max: 0xffffffff, ABSOLUTE, COMPRESSED[0x000006cc])

    Exec Addr    Load Addr    Size         Type   Attr      Idx    E Section Name        Object

    0x20000000   COMPRESSED   0x00000008   Data   RW           10    .data               main.o
    0x20000008   COMPRESSED   0x00000014   Data   RW          311    .data               system_stm32f10x.o
    0x2000001c   COMPRESSED   0x00000001   Data   RW          362    .data               key.o
    0x2000001d   COMPRESSED   0x00000003   PAD
    0x20000020   COMPRESSED   0x000009a8   Data   RW          403    .data               oled.o
    0x200009c8   COMPRESSED   0x00000008   Data   RW          521    .data               flash.o
    0x200009d0   COMPRESSED   0x00000006   Data   RW          572    .data               usart2.o
    0x200009d6   COMPRESSED   0x00000002   Data   RW          673    .data               hmc5883l.o
    0x200009d8   COMPRESSED   0x00000004   Data   RW          772    .data               delay.o
    0x200009dc   COMPRESSED   0x00000006   Data   RW          842    .data               usart.o
    0x200009e2   COMPRESSED   0x00000014   Data   RW         2509    .data               stm32f10x_rcc.o
    0x200009f6   COMPRESSED   0x00000002   PAD
    0x200009f8   COMPRESSED   0x00000014   Data   RW         2916    .data               cjson.o
    0x20000a0c   COMPRESSED   0x00000004   Data   RW         3489    .data               usart3.o
    0x20000a10   COMPRESSED   0x0000000a   Data   RW         3601    .data               git.o
    0x20000a1a   COMPRESSED   0x00000002   PAD
    0x20000a1c   COMPRESSED   0x00000008   Data   RW         3657    .data               task.o
    0x20000a24   COMPRESSED   0x0000000d   Data   RW         3697    .data               timer.o
    0x20000a31   COMPRESSED   0x00000003   PAD
    0x20000a34   COMPRESSED   0x00000004   Data   RW         4148    .data               mc_w.l(mvars.o)
    0x20000a38   COMPRESSED   0x00000004   Data   RW         4149    .data               mc_w.l(mvars.o)
    0x20000a3c   COMPRESSED   0x00000004   Data   RW         4153    .data               mc_w.l(errno.o)


    Execution Region ER_ZI (Exec base: 0x20000a40, Load base: 0x08005958, Size: 0x00003370, Max: 0xffffffff, ABSOLUTE)

    Exec Addr    Load Addr    Size         Type   Attr      Idx    E Section Name        Object

    0x20000a40        -       0x00000830   Zero   RW            8    .bss                main.o
    0x20001270        -       0x00000800   Zero   RW          520    .bss                flash.o
    0x20001a70        -       0x00000141   Zero   RW          571    .bss                usart2.o
    0x20001bb1   0x08005958   0x00000003   PAD
    0x20001bb4        -       0x0000000c   Zero   RW          671    .bss                hmc5883l.o
    0x20001bc0        -       0x000000c8   Zero   RW          841    .bss                usart.o
    0x20001c88        -       0x00000900   Zero   RW         3488    .bss                usart3.o
    0x20002588        -       0x00000821   Zero   RW         3600    .bss                git.o
    0x20002da9   0x08005958   0x00000007   PAD
    0x20002db0        -       0x00000c00   Zero   RW          909    HEAP                startup_stm32f10x_hd.o
    0x200039b0        -       0x00000400   Zero   RW          908    STACK               startup_stm32f10x_hd.o


==============================================================================

Image component sizes


      Code (inc. data)   RO Data    RW Data    ZI Data      Debug   Object Name

      2670         66          0         20          0      17953   cjson.o
       220         26          0          4          0       1783   delay.o
       568         64          0          8       2048       4633   flash.o
      1384        604          0          0          0       4206   ga10.o
       868        140          0         10       2081       7074   git.o
      1408        170         81          2         12       9003   hmc5883l.o
       340         58          0          0          0       3044   jr6001.o
       176         14          0          1          0       1165   key.o
       208         18          0          0          0       1043   led.o
       484        104         29          8       2096     262813   main.o
       172         22          0          0          0       2113   misc.o
       918         36          0       2472          0       6869   oled.o
        36          8        304          0       4096        804   startup_stm32f10x_hd.o
       448          6          0          0          0       4590   stm32f10x_gpio.o
        26          0          0          0          0       3838   stm32f10x_it.o
       340         44          0         20          0       5680   stm32f10x_rcc.o
       252         42          0          0          0       4190   stm32f10x_tim.o
       616         28          0          0          0       7490   stm32f10x_usart.o
         0          0          0          0          0         32   sys.o
       328         28          0         20          0       2157   system_stm32f10x.o
       192         28          0          8          0       3359   task.o
       514         40          0         13          0       4599   timer.o
       324         26          0          6        200       3758   usart.o
       356         38          0          6        321       3471   usart2.o
       456         60          0          4       2304       4605   usart3.o

    ----------------------------------------------------------------------
     13336       1674        452       2612      13168     370272   Object Totals
         0          0         32          0          0          0   (incl. Generated)
        32          4          6         10         10          0   (incl. Padding)

    ----------------------------------------------------------------------

      Code (inc. data)   RO Data    RW Data    ZI Data      Debug   Library Member Name

       544         70        152          0          0        124   atan.o
       412         38          0          0          0        144   atan2.o
        26          6          0          0          0        204   dunder.o
        40          0          0          0          0         68   fpclassify.o
       170          0          0          0          0         96   poly.o
         0          0          8          0          0          0   qnan.o
        28          0          0          0          0         80   strtod.o
        86          0          0          0          0          0   __dczerorl2.o
        64          0          0          0          0         84   _sgetc.o
        40          6         64          0          0         68   ctype_c.o
         0          0          0          0          0          0   entry.o
         0          0          0          0          0          0   entry10a.o
         0          0          0          0          0          0   entry11a.o
         4          0          0          0          0          0   entry12b.o
         8          4          0          0          0          0   entry2.o
         4          0          0          0          0          0   entry5.o
         0          0          0          0          0          0   entry7b.o
         0          0          0          0          0          0   entry8b.o
         8          4          0          0          0          0   entry9a.o
        12          6          0          4          0         68   errno.o
        30          0          0          0          0          0   handlers.o
        36          8          0          0          0         68   init.o
        10          0          0          0          0         68   isspace_c.o
         0          0          0          0          0          0   iusefp.o
        30          0          0          0          0         68   llshl.o
        36          0          0          0          0         68   llsshr.o
        32          0          0          0          0         68   llushr.o
       360         30          0          0          0        356   mallocr.o
        36          0          0          0          0         68   memcpya.o
        36          0          0          0          0        108   memseta.o
         0          0          0          8          0          0   mvars.o
      2268         96          0          0          0        616   printfa.o
       878         12          0          0          0        216   scanf_fp.o
        24          0          0          0          0         68   strcat.o
        20          0          0          0          0         68   strchr.o
        28          0          0          0          0         76   strcmp.o
        14          0          0          0          0         68   strlen.o
        30          0          0          0          0         80   strncmp.o
        36          0          0          0          0         80   strstr.o
       156         12          0          0          0        120   strtod.o
        12          0          0          0          0         68   tolower.o
        44          0          0          0          0         80   uidiv.o
        98          0          0          0          0         92   uldiv.o
        48          0          0          0          0         68   cdcmple.o
        48          0          0          0          0         68   cdrcmple.o
        56          0          0          0          0         88   d2f.o
       334          0          0          0          0        148   dadd.o
       222          0          0          0          0        100   ddiv.o
       186          0          0          0          0        176   depilogue.o
        62          0          0          0          0         80   dfixi.o
        48          0          0          0          0         68   dfixul.o
        34          0          0          0          0         76   dflti.o
        24          0          0          0          0         76   dfltul.o
       228          0          0          0          0         96   dmul.o
        46          0          0          0          0         80   dscalb.o
       110          0          0          0          0        168   fepilogue.o

    ----------------------------------------------------------------------
      7120        292        224         12          0       4732   Library Totals
        14          0          0          0          0          0   (incl. Padding)

    ----------------------------------------------------------------------

      Code (inc. data)   RO Data    RW Data    ZI Data      Debug   Library Name

      1220        114        160          0          0        716   m_ws.l
      4440        178         64         12          0       2724   mc_w.l
      1446          0          0          0          0       1292   mf_w.l

    ----------------------------------------------------------------------
      7120        292        224         12          0       4732   Library Totals

    ----------------------------------------------------------------------

==============================================================================


      Code (inc. data)   RO Data    RW Data    ZI Data      Debug   

     20456       1966        676       2624      13168     365512   Grand Totals
     20456       1966        676       1740      13168     365512   ELF Image Totals (compressed)
     20456       1966        676       1740          0          0   ROM Totals

==============================================================================

    Total RO  Size (Code + RO Data)                21132 (  20.64kB)
    Total RW  Size (RW Data + ZI Data)             15792 (  15.42kB)
    Total ROM Size (Code + RO Data + RW Data)      22872 (  22.34kB)

==============================================================================

